                              1 ;--------------------------------------------------------
                              2 ; File Created by SDCC : free open source ANSI-C Compiler
                              3 ; Version 2.7.0 #4818 (May 31 2007)
                              4 ; This file generated Sun Jun  8 18:00:28 2008
                              5 ;--------------------------------------------------------
                              6 	.module led_ctrl
                              7 	.optsdcc -mmcs51 --model-small
                              8 	
                              9 ;--------------------------------------------------------
                             10 ; Public variables in this module
                             11 ;--------------------------------------------------------
                             12 	.globl _commands
                             13 	.globl _CY
                             14 	.globl _AC
                             15 	.globl _F0
                             16 	.globl _RS1
                             17 	.globl _RS0
                             18 	.globl _OV
                             19 	.globl _FL
                             20 	.globl _P
                             21 	.globl _TF2
                             22 	.globl _EXF2
                             23 	.globl _RCLK
                             24 	.globl _TCLK
                             25 	.globl _EXEN2
                             26 	.globl _TR2
                             27 	.globl _C_T2
                             28 	.globl _CP_RL2
                             29 	.globl _T2CON_7
                             30 	.globl _T2CON_6
                             31 	.globl _T2CON_5
                             32 	.globl _T2CON_4
                             33 	.globl _T2CON_3
                             34 	.globl _T2CON_2
                             35 	.globl _T2CON_1
                             36 	.globl _T2CON_0
                             37 	.globl _PT2
                             38 	.globl _PS
                             39 	.globl _PT1
                             40 	.globl _PX1
                             41 	.globl _PT0
                             42 	.globl _PX0
                             43 	.globl _RD
                             44 	.globl _WR
                             45 	.globl _T1
                             46 	.globl _T0
                             47 	.globl _INT1
                             48 	.globl _INT0
                             49 	.globl _TXD
                             50 	.globl _RXD
                             51 	.globl _P3_7
                             52 	.globl _P3_6
                             53 	.globl _P3_5
                             54 	.globl _P3_4
                             55 	.globl _P3_3
                             56 	.globl _P3_2
                             57 	.globl _P3_1
                             58 	.globl _P3_0
                             59 	.globl _EA
                             60 	.globl _ET2
                             61 	.globl _ES
                             62 	.globl _ET1
                             63 	.globl _EX1
                             64 	.globl _ET0
                             65 	.globl _EX0
                             66 	.globl _P2_7
                             67 	.globl _P2_6
                             68 	.globl _P2_5
                             69 	.globl _P2_4
                             70 	.globl _P2_3
                             71 	.globl _P2_2
                             72 	.globl _P2_1
                             73 	.globl _P2_0
                             74 	.globl _SM0
                             75 	.globl _SM1
                             76 	.globl _SM2
                             77 	.globl _REN
                             78 	.globl _TB8
                             79 	.globl _RB8
                             80 	.globl _TI
                             81 	.globl _RI
                             82 	.globl _T2EX
                             83 	.globl _T2
                             84 	.globl _P1_7
                             85 	.globl _P1_6
                             86 	.globl _P1_5
                             87 	.globl _P1_4
                             88 	.globl _P1_3
                             89 	.globl _P1_2
                             90 	.globl _P1_1
                             91 	.globl _P1_0
                             92 	.globl _TF1
                             93 	.globl _TR1
                             94 	.globl _TF0
                             95 	.globl _TR0
                             96 	.globl _IE1
                             97 	.globl _IT1
                             98 	.globl _IE0
                             99 	.globl _IT0
                            100 	.globl _P0_7
                            101 	.globl _P0_6
                            102 	.globl _P0_5
                            103 	.globl _P0_4
                            104 	.globl _P0_3
                            105 	.globl _P0_2
                            106 	.globl _P0_1
                            107 	.globl _P0_0
                            108 	.globl _B
                            109 	.globl _A
                            110 	.globl _ACC
                            111 	.globl _PSW
                            112 	.globl _TH2
                            113 	.globl _TL2
                            114 	.globl _RCAP2H
                            115 	.globl _RCAP2L
                            116 	.globl _T2MOD
                            117 	.globl _T2CON
                            118 	.globl _IP
                            119 	.globl _P3
                            120 	.globl _IE
                            121 	.globl _P2
                            122 	.globl _SBUF
                            123 	.globl _SCON
                            124 	.globl _P1
                            125 	.globl _TH1
                            126 	.globl _TH0
                            127 	.globl _TL1
                            128 	.globl _TL0
                            129 	.globl _TMOD
                            130 	.globl _TCON
                            131 	.globl _PCON
                            132 	.globl _DPH
                            133 	.globl _DPL
                            134 	.globl _SP
                            135 	.globl _P0
                            136 	.globl _cmd_buffer
                            137 	.globl _led_data
                            138 	.globl _led_selftest_all_on_PARM_1
                            139 	.globl _led_selftest_PARM_3
                            140 	.globl _led_selftest_PARM_2
                            141 	.globl _led_data_cmd_PARM_3
                            142 	.globl _led_data_cmd_PARM_2
                            143 	.globl _xdigits_decoded_PARM_2
                            144 	.globl _enforce_range_PARM_4
                            145 	.globl _enforce_range_PARM_3
                            146 	.globl _enforce_range_PARM_2
                            147 	.globl _arguments
                            148 	.globl _nled_boards
                            149 	.globl _ncols
                            150 	.globl _nrows_div_8
                            151 	.globl _nrows
                            152 	.globl _main
                            153 	.globl _console_loop
                            154 	.globl _match_cmd_verb
                            155 	.globl _parse_cmd_buffer
                            156 	.globl _enforce_range
                            157 	.globl _onoff_bool
                            158 	.globl _xdigitvalue
                            159 	.globl _xdigits_decoded
                            160 	.globl _led_data_cmd
                            161 	.globl _led_debug
                            162 	.globl _led_selftest
                            163 	.globl _led_selftest_corners
                            164 	.globl _led_selftest_all_on
                            165 	.globl _led_selftest_flashes
                            166 	.globl _led_selftest_marching_row
                            167 	.globl _led_selftest_marching_col
                            168 	.globl _led_selftest_cylon
                            169 ;--------------------------------------------------------
                            170 ; special function registers
                            171 ;--------------------------------------------------------
                            172 	.area RSEG    (DATA)
                    0080    173 _P0	=	0x0080
                    0081    174 _SP	=	0x0081
                    0082    175 _DPL	=	0x0082
                    0083    176 _DPH	=	0x0083
                    0087    177 _PCON	=	0x0087
                    0088    178 _TCON	=	0x0088
                    0089    179 _TMOD	=	0x0089
                    008A    180 _TL0	=	0x008a
                    008B    181 _TL1	=	0x008b
                    008C    182 _TH0	=	0x008c
                    008D    183 _TH1	=	0x008d
                    0090    184 _P1	=	0x0090
                    0098    185 _SCON	=	0x0098
                    0099    186 _SBUF	=	0x0099
                    00A0    187 _P2	=	0x00a0
                    00A8    188 _IE	=	0x00a8
                    00B0    189 _P3	=	0x00b0
                    00B8    190 _IP	=	0x00b8
                    00C8    191 _T2CON	=	0x00c8
                    00C9    192 _T2MOD	=	0x00c9
                    00CA    193 _RCAP2L	=	0x00ca
                    00CB    194 _RCAP2H	=	0x00cb
                    00CC    195 _TL2	=	0x00cc
                    00CD    196 _TH2	=	0x00cd
                    00D0    197 _PSW	=	0x00d0
                    00E0    198 _ACC	=	0x00e0
                    00E0    199 _A	=	0x00e0
                    00F0    200 _B	=	0x00f0
                            201 ;--------------------------------------------------------
                            202 ; special function bits
                            203 ;--------------------------------------------------------
                            204 	.area RSEG    (DATA)
                    0080    205 _P0_0	=	0x0080
                    0081    206 _P0_1	=	0x0081
                    0082    207 _P0_2	=	0x0082
                    0083    208 _P0_3	=	0x0083
                    0084    209 _P0_4	=	0x0084
                    0085    210 _P0_5	=	0x0085
                    0086    211 _P0_6	=	0x0086
                    0087    212 _P0_7	=	0x0087
                    0088    213 _IT0	=	0x0088
                    0089    214 _IE0	=	0x0089
                    008A    215 _IT1	=	0x008a
                    008B    216 _IE1	=	0x008b
                    008C    217 _TR0	=	0x008c
                    008D    218 _TF0	=	0x008d
                    008E    219 _TR1	=	0x008e
                    008F    220 _TF1	=	0x008f
                    0090    221 _P1_0	=	0x0090
                    0091    222 _P1_1	=	0x0091
                    0092    223 _P1_2	=	0x0092
                    0093    224 _P1_3	=	0x0093
                    0094    225 _P1_4	=	0x0094
                    0095    226 _P1_5	=	0x0095
                    0096    227 _P1_6	=	0x0096
                    0097    228 _P1_7	=	0x0097
                    0090    229 _T2	=	0x0090
                    0091    230 _T2EX	=	0x0091
                    0098    231 _RI	=	0x0098
                    0099    232 _TI	=	0x0099
                    009A    233 _RB8	=	0x009a
                    009B    234 _TB8	=	0x009b
                    009C    235 _REN	=	0x009c
                    009D    236 _SM2	=	0x009d
                    009E    237 _SM1	=	0x009e
                    009F    238 _SM0	=	0x009f
                    00A0    239 _P2_0	=	0x00a0
                    00A1    240 _P2_1	=	0x00a1
                    00A2    241 _P2_2	=	0x00a2
                    00A3    242 _P2_3	=	0x00a3
                    00A4    243 _P2_4	=	0x00a4
                    00A5    244 _P2_5	=	0x00a5
                    00A6    245 _P2_6	=	0x00a6
                    00A7    246 _P2_7	=	0x00a7
                    00A8    247 _EX0	=	0x00a8
                    00A9    248 _ET0	=	0x00a9
                    00AA    249 _EX1	=	0x00aa
                    00AB    250 _ET1	=	0x00ab
                    00AC    251 _ES	=	0x00ac
                    00AD    252 _ET2	=	0x00ad
                    00AF    253 _EA	=	0x00af
                    00B0    254 _P3_0	=	0x00b0
                    00B1    255 _P3_1	=	0x00b1
                    00B2    256 _P3_2	=	0x00b2
                    00B3    257 _P3_3	=	0x00b3
                    00B4    258 _P3_4	=	0x00b4
                    00B5    259 _P3_5	=	0x00b5
                    00B6    260 _P3_6	=	0x00b6
                    00B7    261 _P3_7	=	0x00b7
                    00B0    262 _RXD	=	0x00b0
                    00B1    263 _TXD	=	0x00b1
                    00B2    264 _INT0	=	0x00b2
                    00B3    265 _INT1	=	0x00b3
                    00B4    266 _T0	=	0x00b4
                    00B5    267 _T1	=	0x00b5
                    00B6    268 _WR	=	0x00b6
                    00B7    269 _RD	=	0x00b7
                    00B8    270 _PX0	=	0x00b8
                    00B9    271 _PT0	=	0x00b9
                    00BA    272 _PX1	=	0x00ba
                    00BB    273 _PT1	=	0x00bb
                    00BC    274 _PS	=	0x00bc
                    00BD    275 _PT2	=	0x00bd
                    00C8    276 _T2CON_0	=	0x00c8
                    00C9    277 _T2CON_1	=	0x00c9
                    00CA    278 _T2CON_2	=	0x00ca
                    00CB    279 _T2CON_3	=	0x00cb
                    00CC    280 _T2CON_4	=	0x00cc
                    00CD    281 _T2CON_5	=	0x00cd
                    00CE    282 _T2CON_6	=	0x00ce
                    00CF    283 _T2CON_7	=	0x00cf
                    00C8    284 _CP_RL2	=	0x00c8
                    00C9    285 _C_T2	=	0x00c9
                    00CA    286 _TR2	=	0x00ca
                    00CB    287 _EXEN2	=	0x00cb
                    00CC    288 _TCLK	=	0x00cc
                    00CD    289 _RCLK	=	0x00cd
                    00CE    290 _EXF2	=	0x00ce
                    00CF    291 _TF2	=	0x00cf
                    00D0    292 _P	=	0x00d0
                    00D1    293 _FL	=	0x00d1
                    00D2    294 _OV	=	0x00d2
                    00D3    295 _RS0	=	0x00d3
                    00D4    296 _RS1	=	0x00d4
                    00D5    297 _F0	=	0x00d5
                    00D6    298 _AC	=	0x00d6
                    00D7    299 _CY	=	0x00d7
                            300 ;--------------------------------------------------------
                            301 ; overlayable register banks
                            302 ;--------------------------------------------------------
                            303 	.area REG_BANK_0	(REL,OVR,DATA)
   0000                     304 	.ds 8
                            305 ;--------------------------------------------------------
                            306 ; internal ram data
                            307 ;--------------------------------------------------------
                            308 	.area DSEG    (DATA)
   0000                     309 _nrows::
   0000                     310 	.ds 1
   0001                     311 _nrows_div_8::
   0001                     312 	.ds 1
   0002                     313 _ncols::
   0002                     314 	.ds 1
   0003                     315 _nled_boards::
   0003                     316 	.ds 2
   0005                     317 _arguments::
   0005                     318 	.ds 15
   0014                     319 _console_loop_arg2_1_1:
   0014                     320 	.ds 2
   0016                     321 _console_loop_arg3_1_1:
   0016                     322 	.ds 2
   0018                     323 _match_cmd_verb_p_1_1:
   0018                     324 	.ds 3
   001B                     325 _parse_cmd_buffer_i_1_1:
   001B                     326 	.ds 1
   001C                     327 _parse_cmd_buffer_sloc1_1_0:
   001C                     328 	.ds 2
   001E                     329 _enforce_range_PARM_2:
   001E                     330 	.ds 2
   0020                     331 _enforce_range_PARM_3:
   0020                     332 	.ds 2
   0022                     333 _enforce_range_PARM_4:
   0022                     334 	.ds 3
   0025                     335 _xdigits_decoded_PARM_2:
   0025                     336 	.ds 1
   0026                     337 _led_data_cmd_PARM_2:
   0026                     338 	.ds 2
   0028                     339 _led_data_cmd_PARM_3:
   0028                     340 	.ds 3
   002B                     341 _led_data_cmd_c1_1_1:
   002B                     342 	.ds 1
   002C                     343 _led_selftest_PARM_2:
   002C                     344 	.ds 1
   002D                     345 _led_selftest_PARM_3:
   002D                     346 	.ds 1
   002E                     347 _led_selftest_marching_row_panel_1_1:
   002E                     348 	.ds 1
   002F                     349 _led_selftest_marching_row_row_1_1:
   002F                     350 	.ds 1
   0030                     351 _led_selftest_marching_col_panel_1_1:
   0030                     352 	.ds 1
   0031                     353 _led_selftest_marching_col_col_1_1:
   0031                     354 	.ds 1
   0032                     355 _led_selftest_cylon_panel_1_1:
   0032                     356 	.ds 1
   0033                     357 _led_selftest_cylon_row_1_1:
   0033                     358 	.ds 1
   0034                     359 _led_selftest_cylon_col_1_1:
   0034                     360 	.ds 1
                            361 ;--------------------------------------------------------
                            362 ; overlayable items in internal ram 
                            363 ;--------------------------------------------------------
                            364 	.area OSEG    (OVR,DATA)
                            365 ;--------------------------------------------------------
                            366 ; Stack segment in internal ram 
                            367 ;--------------------------------------------------------
                            368 	.area	SSEG	(DATA)
   0000                     369 __start__stack:
   0000                     370 	.ds	1
                            371 
                            372 ;--------------------------------------------------------
                            373 ; indirectly addressable internal ram data
                            374 ;--------------------------------------------------------
                            375 	.area ISEG    (DATA)
                            376 ;--------------------------------------------------------
                            377 ; absolute internal ram data
                            378 ;--------------------------------------------------------
                            379 	.area IABS    (ABS,DATA)
                            380 	.area IABS    (ABS,DATA)
                            381 ;--------------------------------------------------------
                            382 ; bit data
                            383 ;--------------------------------------------------------
                            384 	.area BSEG    (BIT)
   0000                     385 _console_loop_sloc0_1_0:
   0000                     386 	.ds 1
   0001                     387 _led_selftest_all_on_PARM_1:
   0001                     388 	.ds 1
                            389 ;--------------------------------------------------------
                            390 ; paged external ram data
                            391 ;--------------------------------------------------------
                            392 	.area PSEG    (PAG,XDATA)
                            393 ;--------------------------------------------------------
                            394 ; external ram data
                            395 ;--------------------------------------------------------
                            396 	.area XSEG    (XDATA)
   0000                     397 _led_data::
   0000                     398 	.ds 512
   0200                     399 _cmd_buffer::
   0200                     400 	.ds 80
                            401 ;--------------------------------------------------------
                            402 ; absolute external ram data
                            403 ;--------------------------------------------------------
                            404 	.area XABS    (ABS,XDATA)
                            405 ;--------------------------------------------------------
                            406 ; external initialized ram data
                            407 ;--------------------------------------------------------
                            408 	.area XISEG   (XDATA)
                            409 	.area HOME    (CODE)
                            410 	.area GSINIT0 (CODE)
                            411 	.area GSINIT1 (CODE)
                            412 	.area GSINIT2 (CODE)
                            413 	.area GSINIT3 (CODE)
                            414 	.area GSINIT4 (CODE)
                            415 	.area GSINIT5 (CODE)
                            416 	.area GSINIT  (CODE)
                            417 	.area GSFINAL (CODE)
                            418 	.area CSEG    (CODE)
                            419 ;--------------------------------------------------------
                            420 ; interrupt vector 
                            421 ;--------------------------------------------------------
                            422 	.area HOME    (CODE)
   0000                     423 __interrupt_vect:
   0000 02s00r00            424 	ljmp	__sdcc_gsinit_startup
   0003 32                  425 	reti
   0004                     426 	.ds	7
   000B 32                  427 	reti
   000C                     428 	.ds	7
   0013 32                  429 	reti
   0014                     430 	.ds	7
   001B 32                  431 	reti
   001C                     432 	.ds	7
   0023 02s00r00            433 	ljmp	_ser_handler
                            434 ;--------------------------------------------------------
                            435 ; global & static initialisations
                            436 ;--------------------------------------------------------
                            437 	.area HOME    (CODE)
                            438 	.area GSINIT  (CODE)
                            439 	.area GSFINAL (CODE)
                            440 	.area GSINIT  (CODE)
                            441 	.globl __sdcc_gsinit_startup
                            442 	.globl __sdcc_program_startup
                            443 	.globl __start__stack
                            444 	.globl __mcs51_genXINIT
                            445 	.globl __mcs51_genXRAMCLEAR
                            446 	.globl __mcs51_genRAMCLEAR
                            447 ;	led_ctrl.c:147: u_int8     nrows = 56;                  // number of rows
   0000 75*00 38            448 	mov	_nrows,#0x38
                            449 ;	led_ctrl.c:148: u_int8     nrows_div_8 = 56 / 8;        // number of bytes or pixel boards in a column
   0003 75*01 07            450 	mov	_nrows_div_8,#0x07
                            451 ;	led_ctrl.c:150: u_int8     ncols = 40;                  // a column is 56 rows of pixel data
   0006 75*02 28            452 	mov	_ncols,#0x28
                            453 ;	led_ctrl.c:152: int        nled_boards = 40*7;          // number of LED pixel boards connected to this controller
   0009 75*03 18            454 	mov	_nled_boards,#0x18
   000C 75*04 01            455 	mov	(_nled_boards + 1),#0x01
                            456 	.area GSFINAL (CODE)
   0000 02s00r26            457 	ljmp	__sdcc_program_startup
                            458 ;--------------------------------------------------------
                            459 ; Home
                            460 ;--------------------------------------------------------
                            461 	.area HOME    (CODE)
                            462 	.area HOME    (CODE)
   0026                     463 __sdcc_program_startup:
   0026 12s00r00            464 	lcall	_main
                            465 ;	return from main will lock up
   0029 80 FE               466 	sjmp .
                            467 ;--------------------------------------------------------
                            468 ; code
                            469 ;--------------------------------------------------------
                            470 	.area CSEG    (CODE)
                            471 ;------------------------------------------------------------
                            472 ;Allocation info for local variables in function 'main'
                            473 ;------------------------------------------------------------
                            474 ;------------------------------------------------------------
                            475 ;	led_ctrl.c:223: int  main()
                            476 ;	-----------------------------------------
                            477 ;	 function main
                            478 ;	-----------------------------------------
   0000                     479 _main:
                    0002    480 	ar2 = 0x02
                    0003    481 	ar3 = 0x03
                    0004    482 	ar4 = 0x04
                    0005    483 	ar5 = 0x05
                    0006    484 	ar6 = 0x06
                    0007    485 	ar7 = 0x07
                    0000    486 	ar0 = 0x00
                    0001    487 	ar1 = 0x01
                            488 ;	led_ctrl.c:227: ser_init();
   0000 12s00r00            489 	lcall	_ser_init
                            490 ;	led_ctrl.c:231: memset( led_data, 0, sizeof led_data );
   0003 75*00 00            491 	mov	_memset_PARM_2,#0x00
   0006 75*00 00            492 	mov	_memset_PARM_3,#0x00
   0009 75*01 02            493 	mov	(_memset_PARM_3 + 1),#0x02
   000C 90s00r00            494 	mov	dptr,#_led_data
   000F 75 F0 00            495 	mov	b,#0x00
   0012 12s00r00            496 	lcall	_memset
                            497 ;	led_ctrl.c:234: puts( version_string );
   0015 90s00r00            498 	mov	dptr,#_version_string
   0018 75 F0 80            499 	mov	b,#0x80
   001B 12s00r00            500 	lcall	_puts
                            501 ;	led_ctrl.c:237: led_selftest_all_on( 0, /* panel */ 0);         // all off
   001E C2*01               502 	clr	_led_selftest_all_on_PARM_1
   0020 75 82 00            503 	mov	dpl,#0x00
   0023 12s0ArFD            504 	lcall	_led_selftest_all_on
                            505 ;	led_ctrl.c:238: led_selftest_marching_row( /* panel */ 0 );
   0026 75 82 00            506 	mov	dpl,#0x00
   0029 12s0BrCE            507 	lcall	_led_selftest_marching_row
                            508 ;	led_ctrl.c:239: led_selftest_marching_col( /* panel */ 0 );
   002C 75 82 00            509 	mov	dpl,#0x00
   002F 12s0Dr2F            510 	lcall	_led_selftest_marching_col
                            511 ;	led_ctrl.c:242: console_loop();
   0032 12s00r39            512 	lcall	_console_loop
                            513 ;	led_ctrl.c:243: return 0;
   0035 90 00 00            514 	mov	dptr,#0x0000
   0038 22                  515 	ret
                            516 ;------------------------------------------------------------
                            517 ;Allocation info for local variables in function 'console_loop'
                            518 ;------------------------------------------------------------
                            519 ;arg1                      Allocated to registers r2 r3 
                            520 ;arg2                      Allocated with name '_console_loop_arg2_1_1'
                            521 ;arg3                      Allocated with name '_console_loop_arg3_1_1'
                            522 ;------------------------------------------------------------
                            523 ;	led_ctrl.c:310: void  console_loop()
                            524 ;	-----------------------------------------
                            525 ;	 function console_loop
                            526 ;	-----------------------------------------
   0039                     527 _console_loop:
                            528 ;	led_ctrl.c:312: int arg1 = 0;
                            529 ;	led_ctrl.c:313: int arg2 = 0;
                            530 ;	led_ctrl.c:314: int arg3 = 0;
   0039 E4                  531 	clr	a
   003A FA                  532 	mov	r2,a
   003B FB                  533 	mov	r3,a
   003C F5*14               534 	mov	_console_loop_arg2_1_1,a
   003E F5*15               535 	mov	(_console_loop_arg2_1_1 + 1),a
   0040 F5*16               536 	mov	_console_loop_arg3_1_1,a
   0042 F5*17               537 	mov	(_console_loop_arg3_1_1 + 1),a
                            538 ;	led_ctrl.c:316: while (1) {
   0044                     539 00132$:
                            540 ;	led_ctrl.c:317: putchar('>'); putchar(' ');
   0044 75 82 3E            541 	mov	dpl,#0x3E
   0047 C0 02               542 	push	ar2
   0049 C0 03               543 	push	ar3
   004B 12s00r00            544 	lcall	_putchar
   004E 75 82 20            545 	mov	dpl,#0x20
   0051 12s00r00            546 	lcall	_putchar
                            547 ;	led_ctrl.c:318: memset( cmd_buffer, 0, sizeof cmd_buffer );
   0054 75*00 00            548 	mov	_memset_PARM_2,#0x00
   0057 75*00 50            549 	mov	_memset_PARM_3,#0x50
   005A E4                  550 	clr	a
   005B F5*01               551 	mov	(_memset_PARM_3 + 1),a
   005D 90s02r00            552 	mov	dptr,#_cmd_buffer
   0060 75 F0 00            553 	mov	b,#0x00
   0063 12s00r00            554 	lcall	_memset
                            555 ;	led_ctrl.c:322: read_switch();
   0066 12s00r00            556 	lcall	_read_switch
                            557 ;	led_ctrl.c:324: ser_gets( cmd_buffer, sizeof cmd_buffer );
   0069 75*00 50            558 	mov	_ser_gets_PARM_2,#0x50
   006C 90s02r00            559 	mov	dptr,#_cmd_buffer
   006F 75 F0 00            560 	mov	b,#0x00
   0072 12s00r00            561 	lcall	_ser_gets
                            562 ;	led_ctrl.c:325: parse_cmd_buffer();         // array arguments[] assigned pointers to tokens
   0075 12s04r4C            563 	lcall	_parse_cmd_buffer
   0078 D0 03               564 	pop	ar3
   007A D0 02               565 	pop	ar2
                            566 ;	led_ctrl.c:328: if ( OPTIONAL_ARG(1) ) {
   007C AE*08               567 	mov	r6,(_arguments + 0x0003)
   007E AF*09               568 	mov	r7,((_arguments + 0x0003) + 1)
   0080 AC*0A               569 	mov	r4,((_arguments + 0x0003) + 2)
   0082 BE 00 08            570 	cjne	r6,#0x00,00157$
   0085 BF 00 05            571 	cjne	r7,#0x00,00157$
   0088 BC 00 02            572 	cjne	r4,#0x00,00157$
   008B 80 0D               573 	sjmp	00102$
   008D                     574 00157$:
                            575 ;	led_ctrl.c:329: arg1 = atoi( arguments[1] );
   008D 8E 82               576 	mov	dpl,r6
   008F 8F 83               577 	mov	dph,r7
   0091 8C F0               578 	mov	b,r4
   0093 12s00r00            579 	lcall	_atoi
   0096 AA 82               580 	mov	r2,dpl
   0098 AB 83               581 	mov	r3,dph
   009A                     582 00102$:
                            583 ;	led_ctrl.c:331: if ( OPTIONAL_ARG(2) ) {
   009A AC*0B               584 	mov	r4,(_arguments + 0x0006)
   009C AD*0C               585 	mov	r5,((_arguments + 0x0006) + 1)
   009E AE*0D               586 	mov	r6,((_arguments + 0x0006) + 2)
   00A0 BC 00 08            587 	cjne	r4,#0x00,00158$
   00A3 BD 00 05            588 	cjne	r5,#0x00,00158$
   00A6 BE 00 02            589 	cjne	r6,#0x00,00158$
   00A9 80 17               590 	sjmp	00104$
   00AB                     591 00158$:
                            592 ;	led_ctrl.c:332: arg2 = atoi( arguments[2] );
   00AB 8C 82               593 	mov	dpl,r4
   00AD 8D 83               594 	mov	dph,r5
   00AF 8E F0               595 	mov	b,r6
   00B1 C0 02               596 	push	ar2
   00B3 C0 03               597 	push	ar3
   00B5 12s00r00            598 	lcall	_atoi
   00B8 85 82*14            599 	mov	_console_loop_arg2_1_1,dpl
   00BB 85 83*15            600 	mov	(_console_loop_arg2_1_1 + 1),dph
   00BE D0 03               601 	pop	ar3
   00C0 D0 02               602 	pop	ar2
   00C2                     603 00104$:
                            604 ;	led_ctrl.c:334: if ( OPTIONAL_ARG(3) ) {
   00C2 AC*0E               605 	mov	r4,(_arguments + 0x0009)
   00C4 AD*0F               606 	mov	r5,((_arguments + 0x0009) + 1)
   00C6 AE*10               607 	mov	r6,((_arguments + 0x0009) + 2)
   00C8 BC 00 08            608 	cjne	r4,#0x00,00159$
   00CB BD 00 05            609 	cjne	r5,#0x00,00159$
   00CE BE 00 02            610 	cjne	r6,#0x00,00159$
   00D1 80 17               611 	sjmp	00106$
   00D3                     612 00159$:
                            613 ;	led_ctrl.c:335: arg3 = atoi( arguments[3] );
   00D3 8C 82               614 	mov	dpl,r4
   00D5 8D 83               615 	mov	dph,r5
   00D7 8E F0               616 	mov	b,r6
   00D9 C0 02               617 	push	ar2
   00DB C0 03               618 	push	ar3
   00DD 12s00r00            619 	lcall	_atoi
   00E0 85 82*16            620 	mov	_console_loop_arg3_1_1,dpl
   00E3 85 83*17            621 	mov	(_console_loop_arg3_1_1 + 1),dph
   00E6 D0 03               622 	pop	ar3
   00E8 D0 02               623 	pop	ar2
   00EA                     624 00106$:
                            625 ;	led_ctrl.c:338: if ( arguments[0] == NULL ) {
   00EA AC*05               626 	mov	r4,_arguments
   00EC AD*06               627 	mov	r5,(_arguments + 1)
   00EE AE*07               628 	mov	r6,(_arguments + 2)
   00F0 BC 00 09            629 	cjne	r4,#0x00,00160$
   00F3 BD 00 06            630 	cjne	r5,#0x00,00160$
   00F6 BE 00 03            631 	cjne	r6,#0x00,00160$
   00F9 02s00r44            632 	ljmp	00132$
   00FC                     633 00160$:
                            634 ;	led_ctrl.c:342: if ( arguments[0][0] == '?' ) {
   00FC 8C 82               635 	mov	dpl,r4
   00FE 8D 83               636 	mov	dph,r5
   0100 8E F0               637 	mov	b,r6
   0102 12s00r00            638 	lcall	__gptrget
   0105 FC                  639 	mov	r4,a
   0106 BC 3F 03            640 	cjne	r4,#0x3F,00161$
   0109 02s03r53            641 	ljmp	00126$
   010C                     642 00161$:
                            643 ;	led_ctrl.c:347: switch ( match_cmd_verb() ) {
   010C C0 02               644 	push	ar2
   010E C0 03               645 	push	ar3
   0110 12s03r87            646 	lcall	_match_cmd_verb
   0113 AC 82               647 	mov	r4,dpl
   0115 D0 03               648 	pop	ar3
   0117 D0 02               649 	pop	ar2
   0119 EC                  650 	mov	a,r4
   011A 24 F5               651 	add	a,#0xff - 0x0A
   011C 50 03               652 	jnc	00162$
   011E 02s03r73            653 	ljmp	00129$
   0121                     654 00162$:
   0121 EC                  655 	mov	a,r4
   0122 2C                  656 	add	a,r4
   0123 2C                  657 	add	a,r4
   0124 90s01r28            658 	mov	dptr,#00163$
   0127 73                  659 	jmp	@a+dptr
   0128                     660 00163$:
   0128 02s03r73            661 	ljmp	00128$
   012B 02s01r49            662 	ljmp	00111$
   012E 02s01r86            663 	ljmp	00112$
   0131 02s02r0C            664 	ljmp	00114$
   0134 02s02r2D            665 	ljmp	00115$
   0137 02s02r8F            666 	ljmp	00119$
   013A 02s03r0F            667 	ljmp	00123$
   013D 02s03r45            668 	ljmp	00124$
   0140 02s03r53            669 	ljmp	00125$
   0143 02s03r70            670 	ljmp	00127$
   0146 02s01rBE            671 	ljmp	00113$
                            672 ;	led_ctrl.c:348: case CMD_ROWS:
   0149                     673 00111$:
                            674 ;	led_ctrl.c:350: nrows = enforce_range( arg1, 1, MAXNROWS, "rows" );
   0149 75*22r6A            675 	mov	_enforce_range_PARM_4,#__str_0
   014C 75*23s02            676 	mov	(_enforce_range_PARM_4 + 1),#(__str_0 >> 8)
   014F 75*24 80            677 	mov	(_enforce_range_PARM_4 + 2),#0x80
   0152 75*1E 01            678 	mov	_enforce_range_PARM_2,#0x01
   0155 E4                  679 	clr	a
   0156 F5*1F               680 	mov	(_enforce_range_PARM_2 + 1),a
   0158 75*20 40            681 	mov	_enforce_range_PARM_3,#0x40
   015B E4                  682 	clr	a
   015C F5*21               683 	mov	(_enforce_range_PARM_3 + 1),a
   015E 8A 82               684 	mov	dpl,r2
   0160 8B 83               685 	mov	dph,r3
   0162 C0 02               686 	push	ar2
   0164 C0 03               687 	push	ar3
   0166 12s04rEC            688 	lcall	_enforce_range
   0169 AC 82               689 	mov	r4,dpl
   016B AD 83               690 	mov	r5,dph
   016D D0 03               691 	pop	ar3
   016F D0 02               692 	pop	ar2
                            693 ;	led_ctrl.c:351: nrows_div_8 = nrows / 8;
   0171 EC                  694 	mov	a,r4
   0172 F5*00               695 	mov	_nrows,a
   0174 C4                  696 	swap	a
   0175 23                  697 	rl	a
   0176 54 1F               698 	anl	a,#0x1f
                            699 ;	led_ctrl.c:352: nled_boards = ncols * nrows_div_8;
   0178 F5*01               700 	mov	_nrows_div_8,a
   017A 85*02 F0            701 	mov	b,_ncols
   017D A4                  702 	mul	ab
   017E F5*03               703 	mov	_nled_boards,a
   0180 85 F0*04            704 	mov	(_nled_boards + 1),b
                            705 ;	led_ctrl.c:353: break;
   0183 02s00r44            706 	ljmp	00132$
                            707 ;	led_ctrl.c:355: case CMD_COLS:
   0186                     708 00112$:
                            709 ;	led_ctrl.c:357: ncols = enforce_range( arg1, 1, MAXNCOLS, "columns" );
   0186 75*22r6F            710 	mov	_enforce_range_PARM_4,#__str_1
   0189 75*23s02            711 	mov	(_enforce_range_PARM_4 + 1),#(__str_1 >> 8)
   018C 75*24 80            712 	mov	(_enforce_range_PARM_4 + 2),#0x80
   018F 75*1E 01            713 	mov	_enforce_range_PARM_2,#0x01
   0192 E4                  714 	clr	a
   0193 F5*1F               715 	mov	(_enforce_range_PARM_2 + 1),a
   0195 75*20 40            716 	mov	_enforce_range_PARM_3,#0x40
   0198 E4                  717 	clr	a
   0199 F5*21               718 	mov	(_enforce_range_PARM_3 + 1),a
   019B 8A 82               719 	mov	dpl,r2
   019D 8B 83               720 	mov	dph,r3
   019F C0 02               721 	push	ar2
   01A1 C0 03               722 	push	ar3
   01A3 12s04rEC            723 	lcall	_enforce_range
   01A6 AC 82               724 	mov	r4,dpl
   01A8 AD 83               725 	mov	r5,dph
   01AA D0 03               726 	pop	ar3
   01AC D0 02               727 	pop	ar2
   01AE 8C*02               728 	mov	_ncols,r4
                            729 ;	led_ctrl.c:358: nled_boards = ncols * nrows_div_8;
   01B0 85*02 F0            730 	mov	b,_ncols
   01B3 E5*01               731 	mov	a,_nrows_div_8
   01B5 A4                  732 	mul	ab
   01B6 F5*03               733 	mov	_nled_boards,a
   01B8 85 F0*04            734 	mov	(_nled_boards + 1),b
                            735 ;	led_ctrl.c:359: break;
   01BB 02s00r44            736 	ljmp	00132$
                            737 ;	led_ctrl.c:361: case CMD_ALL:
   01BE                     738 00113$:
                            739 ;	led_ctrl.c:364: onoff_bool( arguments[1] ),  /* "on"|"off" or "0"|"1" */
   01BE 85*08 82            740 	mov	dpl,(_arguments + 0x0003)
   01C1 85*09 83            741 	mov	dph,((_arguments + 0x0003) + 1)
   01C4 85*0A F0            742 	mov	b,((_arguments + 0x0003) + 2)
   01C7 C0 02               743 	push	ar2
   01C9 C0 03               744 	push	ar3
   01CB 12s05r73            745 	lcall	_onoff_bool
   01CE D0 03               746 	pop	ar3
   01D0 D0 02               747 	pop	ar2
   01D2 92*00               748 	mov	_console_loop_sloc0_1_0,c
                            749 ;	led_ctrl.c:365: OPTIONAL_ARG(2) ? arg2 : 0  /* optional <panel> */
   01D4 E4                  750 	clr	a
   01D5 B5*0B 0C            751 	cjne	a,(_arguments + 0x0006),00164$
   01D8 E4                  752 	clr	a
   01D9 B5*0C 08            753 	cjne	a,((_arguments + 0x0006) + 1),00164$
   01DC E4                  754 	clr	a
   01DD B5*0D 04            755 	cjne	a,((_arguments + 0x0006) + 2),00164$
   01E0 74 01               756 	mov	a,#0x01
   01E2 80 01               757 	sjmp	00165$
   01E4                     758 00164$:
   01E4 E4                  759 	clr	a
   01E5                     760 00165$:
   01E5 FC                  761 	mov	r4,a
   01E6 B4 01 00            762 	cjne	a,#0x01,00166$
   01E9                     763 00166$:
   01E9 E4                  764 	clr	a
   01EA 33                  765 	rlc	a
   01EB FC                  766 	mov	r4,a
   01EC 60 06               767 	jz	00136$
   01EE AC*14               768 	mov	r4,_console_loop_arg2_1_1
   01F0 AD*15               769 	mov	r5,(_console_loop_arg2_1_1 + 1)
   01F2 80 04               770 	sjmp	00137$
   01F4                     771 00136$:
   01F4 7C 00               772 	mov	r4,#0x00
   01F6 7D 00               773 	mov	r5,#0x00
   01F8                     774 00137$:
   01F8 8C 82               775 	mov	dpl,r4
   01FA A2*00               776 	mov	c,_console_loop_sloc0_1_0
   01FC 92*01               777 	mov	_led_selftest_all_on_PARM_1,c
   01FE C0 02               778 	push	ar2
   0200 C0 03               779 	push	ar3
   0202 12s0ArFD            780 	lcall	_led_selftest_all_on
   0205 D0 03               781 	pop	ar3
   0207 D0 02               782 	pop	ar2
                            783 ;	led_ctrl.c:367: break;
   0209 02s00r44            784 	ljmp	00132$
                            785 ;	led_ctrl.c:369: case CMD_DATA:
   020C                     786 00114$:
                            787 ;	led_ctrl.c:373: arguments[3] );       /* hexified data */
   020C 85*0E*28            788 	mov	_led_data_cmd_PARM_3,(_arguments + 0x0009)
   020F 85*0F*29            789 	mov	(_led_data_cmd_PARM_3 + 1),((_arguments + 0x0009) + 1)
   0212 85*10*2A            790 	mov	(_led_data_cmd_PARM_3 + 2),((_arguments + 0x0009) + 2)
   0215 85*14*26            791 	mov	_led_data_cmd_PARM_2,_console_loop_arg2_1_1
   0218 85*15*27            792 	mov	(_led_data_cmd_PARM_2 + 1),(_console_loop_arg2_1_1 + 1)
   021B 8A 82               793 	mov	dpl,r2
   021D 8B 83               794 	mov	dph,r3
   021F C0 02               795 	push	ar2
   0221 C0 03               796 	push	ar3
   0223 12s06rD5            797 	lcall	_led_data_cmd
   0226 D0 03               798 	pop	ar3
   0228 D0 02               799 	pop	ar2
                            800 ;	led_ctrl.c:374: break;
   022A 02s00r44            801 	ljmp	00132$
                            802 ;	led_ctrl.c:376: case CMD_PIXEL:
   022D                     803 00115$:
                            804 ;	led_ctrl.c:378: if ( OPTIONAL_ARG(4) ) {
   022D E4                  805 	clr	a
   022E B5*11 0A            806 	cjne	a,(_arguments + 0x000c),00168$
   0231 E4                  807 	clr	a
   0232 B5*12 06            808 	cjne	a,((_arguments + 0x000c) + 1),00168$
   0235 E4                  809 	clr	a
   0236 B5*13 02            810 	cjne	a,((_arguments + 0x000c) + 2),00168$
   0239 80 32               811 	sjmp	00117$
   023B                     812 00168$:
                            813 ;	led_ctrl.c:380: onoff_bool( arguments[1] ),  /* "on"|"off" or "0"|"1" */
   023B 85*08 82            814 	mov	dpl,(_arguments + 0x0003)
   023E 85*09 83            815 	mov	dph,((_arguments + 0x0003) + 1)
   0241 85*0A F0            816 	mov	b,((_arguments + 0x0003) + 2)
   0244 C0 02               817 	push	ar2
   0246 C0 03               818 	push	ar3
   0248 12s05r73            819 	lcall	_onoff_bool
   024B 92*00               820 	mov	_console_loop_sloc0_1_0,c
                            821 ;	led_ctrl.c:381: atoi( arguments[4] ),   /* panel */
   024D 85*11 82            822 	mov	dpl,(_arguments + 0x000c)
   0250 85*12 83            823 	mov	dph,((_arguments + 0x000c) + 1)
   0253 85*13 F0            824 	mov	b,((_arguments + 0x000c) + 2)
   0256 12s00r00            825 	lcall	_atoi
                            826 ;	led_ctrl.c:382: arg2,                   /* row */
   0259 85*14*00            827 	mov	_led_store_in_panel_PARM_3,_console_loop_arg2_1_1
                            828 ;	led_ctrl.c:383: arg3 );                 /* column */
   025C 85*16*00            829 	mov	_led_store_in_panel_PARM_4,_console_loop_arg3_1_1
   025F A2*00               830 	mov	c,_console_loop_sloc0_1_0
   0261 92*00               831 	mov	_led_store_in_panel_PARM_1,c
   0263 12s00r00            832 	lcall	_led_store_in_panel
   0266 D0 03               833 	pop	ar3
   0268 D0 02               834 	pop	ar2
   026A 02s00r44            835 	ljmp	00132$
   026D                     836 00117$:
                            837 ;	led_ctrl.c:386: onoff_bool( arguments[1] ),  /* "on"|"off" or "0"|"1" */
   026D 85*08 82            838 	mov	dpl,(_arguments + 0x0003)
   0270 85*09 83            839 	mov	dph,((_arguments + 0x0003) + 1)
   0273 85*0A F0            840 	mov	b,((_arguments + 0x0003) + 2)
   0276 C0 02               841 	push	ar2
   0278 C0 03               842 	push	ar3
   027A 12s05r73            843 	lcall	_onoff_bool
   027D 92*00               844 	mov	_led_store1_PARM_1,c
                            845 ;	led_ctrl.c:387: arg2,                   /* row */
   027F 85*14 82            846 	mov	dpl,_console_loop_arg2_1_1
                            847 ;	led_ctrl.c:388: arg3 );                 /* column */
   0282 85*16*00            848 	mov	_led_store1_PARM_3,_console_loop_arg3_1_1
   0285 12s00r00            849 	lcall	_led_store1
   0288 D0 03               850 	pop	ar3
   028A D0 02               851 	pop	ar2
                            852 ;	led_ctrl.c:390: break;
   028C 02s00r44            853 	ljmp	00132$
                            854 ;	led_ctrl.c:392: case CMD_TEST:
   028F                     855 00119$:
                            856 ;	led_ctrl.c:394: if ( REQUIRED_ARG(1) ) {
   028F E4                  857 	clr	a
   0290 B5*08 0A            858 	cjne	a,(_arguments + 0x0003),00169$
   0293 E4                  859 	clr	a
   0294 B5*09 06            860 	cjne	a,((_arguments + 0x0003) + 1),00169$
   0297 E4                  861 	clr	a
   0298 B5*0A 02            862 	cjne	a,((_arguments + 0x0003) + 2),00169$
   029B 80 5E               863 	sjmp	00121$
   029D                     864 00169$:
                            865 ;	led_ctrl.c:396: arg1,                           /* test number */
   029D 8A 04               866 	mov	ar4,r2
                            867 ;	led_ctrl.c:397: OPTIONAL_ARG(2) ? arg2 : 0 ,    /* optional <panel> */
   029F E4                  868 	clr	a
   02A0 B5*0B 0C            869 	cjne	a,(_arguments + 0x0006),00170$
   02A3 E4                  870 	clr	a
   02A4 B5*0C 08            871 	cjne	a,((_arguments + 0x0006) + 1),00170$
   02A7 E4                  872 	clr	a
   02A8 B5*0D 04            873 	cjne	a,((_arguments + 0x0006) + 2),00170$
   02AB 74 01               874 	mov	a,#0x01
   02AD 80 01               875 	sjmp	00171$
   02AF                     876 00170$:
   02AF E4                  877 	clr	a
   02B0                     878 00171$:
   02B0 FD                  879 	mov	r5,a
   02B1 B4 01 00            880 	cjne	a,#0x01,00172$
   02B4                     881 00172$:
   02B4 E4                  882 	clr	a
   02B5 33                  883 	rlc	a
   02B6 FD                  884 	mov	r5,a
   02B7 60 06               885 	jz	00138$
   02B9 AD*14               886 	mov	r5,_console_loop_arg2_1_1
   02BB AE*15               887 	mov	r6,(_console_loop_arg2_1_1 + 1)
   02BD 80 04               888 	sjmp	00139$
   02BF                     889 00138$:
   02BF 7D 00               890 	mov	r5,#0x00
   02C1 7E 00               891 	mov	r6,#0x00
   02C3                     892 00139$:
                            893 ;	led_ctrl.c:398: OPTIONAL_ARG(3) ? arg3 : 3 );   /* optional repeat */
   02C3 E4                  894 	clr	a
   02C4 B5*0E 0C            895 	cjne	a,(_arguments + 0x0009),00174$
   02C7 E4                  896 	clr	a
   02C8 B5*0F 08            897 	cjne	a,((_arguments + 0x0009) + 1),00174$
   02CB E4                  898 	clr	a
   02CC B5*10 04            899 	cjne	a,((_arguments + 0x0009) + 2),00174$
   02CF 74 01               900 	mov	a,#0x01
   02D1 80 01               901 	sjmp	00175$
   02D3                     902 00174$:
   02D3 E4                  903 	clr	a
   02D4                     904 00175$:
   02D4 FE                  905 	mov	r6,a
   02D5 B4 01 00            906 	cjne	a,#0x01,00176$
   02D8                     907 00176$:
   02D8 E4                  908 	clr	a
   02D9 33                  909 	rlc	a
   02DA FE                  910 	mov	r6,a
   02DB 60 06               911 	jz	00140$
   02DD AE*16               912 	mov	r6,_console_loop_arg3_1_1
   02DF AF*17               913 	mov	r7,(_console_loop_arg3_1_1 + 1)
   02E1 80 04               914 	sjmp	00141$
   02E3                     915 00140$:
   02E3 7E 03               916 	mov	r6,#0x03
   02E5 7F 00               917 	mov	r7,#0x00
   02E7                     918 00141$:
   02E7 8E*2D               919 	mov	_led_selftest_PARM_3,r6
   02E9 8D*2C               920 	mov	_led_selftest_PARM_2,r5
   02EB 8C 82               921 	mov	dpl,r4
   02ED C0 02               922 	push	ar2
   02EF C0 03               923 	push	ar3
   02F1 12s09r39            924 	lcall	_led_selftest
   02F4 D0 03               925 	pop	ar3
   02F6 D0 02               926 	pop	ar2
   02F8 02s00r44            927 	ljmp	00132$
   02FB                     928 00121$:
                            929 ;	led_ctrl.c:400: puts ( test_help_string );
   02FB 90s00rDF            930 	mov	dptr,#_test_help_string
   02FE 75 F0 80            931 	mov	b,#0x80
   0301 C0 02               932 	push	ar2
   0303 C0 03               933 	push	ar3
   0305 12s00r00            934 	lcall	_puts
   0308 D0 03               935 	pop	ar3
   030A D0 02               936 	pop	ar2
                            937 ;	led_ctrl.c:402: break;
   030C 02s00r44            938 	ljmp	00132$
                            939 ;	led_ctrl.c:404: case CMD_REFRESH:
   030F                     940 00123$:
                            941 ;	led_ctrl.c:406: led_datarefresh( OPTIONAL_ARG(1) ? arg1 : 0 );
   030F E4                  942 	clr	a
   0310 B5*08 0C            943 	cjne	a,(_arguments + 0x0003),00178$
   0313 E4                  944 	clr	a
   0314 B5*09 08            945 	cjne	a,((_arguments + 0x0003) + 1),00178$
   0317 E4                  946 	clr	a
   0318 B5*0A 04            947 	cjne	a,((_arguments + 0x0003) + 2),00178$
   031B 74 01               948 	mov	a,#0x01
   031D 80 01               949 	sjmp	00179$
   031F                     950 00178$:
   031F E4                  951 	clr	a
   0320                     952 00179$:
   0320 FC                  953 	mov	r4,a
   0321 B4 01 00            954 	cjne	a,#0x01,00180$
   0324                     955 00180$:
   0324 E4                  956 	clr	a
   0325 33                  957 	rlc	a
   0326 FC                  958 	mov	r4,a
   0327 60 06               959 	jz	00142$
   0329 8A 04               960 	mov	ar4,r2
   032B 8B 05               961 	mov	ar5,r3
   032D 80 04               962 	sjmp	00143$
   032F                     963 00142$:
   032F 7C 00               964 	mov	r4,#0x00
   0331 7D 00               965 	mov	r5,#0x00
   0333                     966 00143$:
   0333 8C 82               967 	mov	dpl,r4
   0335 8D 83               968 	mov	dph,r5
   0337 C0 02               969 	push	ar2
   0339 C0 03               970 	push	ar3
   033B 12s00r00            971 	lcall	_led_datarefresh
   033E D0 03               972 	pop	ar3
   0340 D0 02               973 	pop	ar2
                            974 ;	led_ctrl.c:407: break;
   0342 02s00r44            975 	ljmp	00132$
                            976 ;	led_ctrl.c:409: case CMD_DEBUG:
   0345                     977 00124$:
                            978 ;	led_ctrl.c:411: led_debug();
   0345 C0 02               979 	push	ar2
   0347 C0 03               980 	push	ar3
   0349 12s08r09            981 	lcall	_led_debug
   034C D0 03               982 	pop	ar3
   034E D0 02               983 	pop	ar2
                            984 ;	led_ctrl.c:412: break;
   0350 02s00r44            985 	ljmp	00132$
                            986 ;	led_ctrl.c:414: case CMD_HELP:
   0353                     987 00125$:
                            988 ;	led_ctrl.c:416: help_user:
   0353                     989 00126$:
                            990 ;	led_ctrl.c:417: puts( version_string );
   0353 90s00r00            991 	mov	dptr,#_version_string
   0356 75 F0 80            992 	mov	b,#0x80
   0359 C0 02               993 	push	ar2
   035B C0 03               994 	push	ar3
   035D 12s00r00            995 	lcall	_puts
                            996 ;	led_ctrl.c:418: puts( help_string );
   0360 90s00r4F            997 	mov	dptr,#_help_string
   0363 75 F0 80            998 	mov	b,#0x80
   0366 12s00r00            999 	lcall	_puts
   0369 D0 03              1000 	pop	ar3
   036B D0 02              1001 	pop	ar2
                           1002 ;	led_ctrl.c:419: break;
   036D 02s00r44           1003 	ljmp	00132$
                           1004 ;	led_ctrl.c:421: case CMD_NOP:
   0370                    1005 00127$:
                           1006 ;	led_ctrl.c:422: break;
   0370 02s00r44           1007 	ljmp	00132$
                           1008 ;	led_ctrl.c:424: case 0:
   0373                    1009 00128$:
                           1010 ;	led_ctrl.c:425: default:
   0373                    1011 00129$:
                           1012 ;	led_ctrl.c:426: puts("eh?");
   0373 90s02r77           1013 	mov	dptr,#__str_2
   0376 75 F0 80           1014 	mov	b,#0x80
   0379 C0 02              1015 	push	ar2
   037B C0 03              1016 	push	ar3
   037D 12s00r00           1017 	lcall	_puts
   0380 D0 03              1018 	pop	ar3
   0382 D0 02              1019 	pop	ar2
                           1020 ;	led_ctrl.c:428: }
   0384 02s00r44           1021 	ljmp	00132$
                           1022 ;------------------------------------------------------------
                           1023 ;Allocation info for local variables in function 'match_cmd_verb'
                           1024 ;------------------------------------------------------------
                           1025 ;p                         Allocated with name '_match_cmd_verb_p_1_1'
                           1026 ;------------------------------------------------------------
                           1027 ;	led_ctrl.c:439: u_int8  match_cmd_verb()
                           1028 ;	-----------------------------------------
                           1029 ;	 function match_cmd_verb
                           1030 ;	-----------------------------------------
   0387                    1031 _match_cmd_verb:
                           1032 ;	led_ctrl.c:442: for( p = &commands[0]; *p->cmd_string; p++ ) {
   0387 75*18r33           1033 	mov	_match_cmd_verb_p_1_1,#_commands
   038A 75*19s02           1034 	mov	(_match_cmd_verb_p_1_1 + 1),#(_commands >> 8)
   038D 75*1A 80           1035 	mov	(_match_cmd_verb_p_1_1 + 2),#0x80
   0390 AD*18              1036 	mov	r5,_match_cmd_verb_p_1_1
   0392 AE*19              1037 	mov	r6,(_match_cmd_verb_p_1_1 + 1)
   0394 AF*1A              1038 	mov	r7,(_match_cmd_verb_p_1_1 + 2)
   0396                    1039 00106$:
   0396 74 02              1040 	mov	a,#0x02
   0398 2D                 1041 	add	a,r5
   0399 FA                 1042 	mov	r2,a
   039A E4                 1043 	clr	a
   039B 3E                 1044 	addc	a,r6
   039C FB                 1045 	mov	r3,a
   039D 8F 04              1046 	mov	ar4,r7
   039F 8A 82              1047 	mov	dpl,r2
   03A1 8B 83              1048 	mov	dph,r3
   03A3 8C F0              1049 	mov	b,r4
   03A5 12s00r00           1050 	lcall	__gptrget
   03A8 FA                 1051 	mov	r2,a
   03A9 A3                 1052 	inc	dptr
   03AA 12s00r00           1053 	lcall	__gptrget
   03AD FB                 1054 	mov	r3,a
   03AE A3                 1055 	inc	dptr
   03AF 12s00r00           1056 	lcall	__gptrget
   03B2 FC                 1057 	mov	r4,a
   03B3 8A 82              1058 	mov	dpl,r2
   03B5 8B 83              1059 	mov	dph,r3
   03B7 8C F0              1060 	mov	b,r4
   03B9 12s00r00           1061 	lcall	__gptrget
   03BC 70 03              1062 	jnz	00116$
   03BE 02s04r48           1063 	ljmp	00109$
   03C1                    1064 00116$:
                           1065 ;	led_ctrl.c:443: if ( STRMATCH2( arguments[0], p->cmd_string ) ) {
   03C1 8A*00              1066 	mov	_strncmp_PARM_2,r2
   03C3 8B*01              1067 	mov	(_strncmp_PARM_2 + 1),r3
   03C5 8C*02              1068 	mov	(_strncmp_PARM_2 + 2),r4
   03C7 75*00 02           1069 	mov	_strncmp_PARM_3,#0x02
   03CA E4                 1070 	clr	a
   03CB F5*01              1071 	mov	(_strncmp_PARM_3 + 1),a
   03CD 85*05 82           1072 	mov	dpl,_arguments
   03D0 85*06 83           1073 	mov	dph,(_arguments + 1)
   03D3 85*07 F0           1074 	mov	b,(_arguments + 2)
   03D6 C0 05              1075 	push	ar5
   03D8 C0 06              1076 	push	ar6
   03DA C0 07              1077 	push	ar7
   03DC 12s00r00           1078 	lcall	_strncmp
   03DF E5 82              1079 	mov	a,dpl
   03E1 85 83 F0           1080 	mov	b,dph
   03E4 D0 07              1081 	pop	ar7
   03E6 D0 06              1082 	pop	ar6
   03E8 D0 05              1083 	pop	ar5
   03EA 45 F0              1084 	orl	a,b
   03EC 70 4A              1085 	jnz	00108$
                           1086 ;	led_ctrl.c:444: if ( REQUIRED_ARG(p->cmd_required_args) ) {
   03EE 74 01              1087 	mov	a,#0x01
   03F0 25*18              1088 	add	a,_match_cmd_verb_p_1_1
   03F2 FA                 1089 	mov	r2,a
   03F3 E4                 1090 	clr	a
   03F4 35*19              1091 	addc	a,(_match_cmd_verb_p_1_1 + 1)
   03F6 FB                 1092 	mov	r3,a
   03F7 AC*1A              1093 	mov	r4,(_match_cmd_verb_p_1_1 + 2)
   03F9 8A 82              1094 	mov	dpl,r2
   03FB 8B 83              1095 	mov	dph,r3
   03FD 8C F0              1096 	mov	b,r4
   03FF 12s00r00           1097 	lcall	__gptrget
   0402 75 F0 03           1098 	mov	b,#0x03
   0405 A4                 1099 	mul	ab
   0406 24r05              1100 	add	a,#_arguments
   0408 F8                 1101 	mov	r0,a
   0409 86 02              1102 	mov	ar2,@r0
   040B 08                 1103 	inc	r0
   040C 86 03              1104 	mov	ar3,@r0
   040E 08                 1105 	inc	r0
   040F 86 04              1106 	mov	ar4,@r0
   0411 BA 00 08           1107 	cjne	r2,#0x00,00118$
   0414 BB 00 05           1108 	cjne	r3,#0x00,00118$
   0417 BC 00 02           1109 	cjne	r4,#0x00,00118$
   041A 80 0F              1110 	sjmp	00102$
   041C                    1111 00118$:
                           1112 ;	led_ctrl.c:445: return p->cmd_identifier;
   041C 85*18 82           1113 	mov	dpl,_match_cmd_verb_p_1_1
   041F 85*19 83           1114 	mov	dph,(_match_cmd_verb_p_1_1 + 1)
   0422 85*1A F0           1115 	mov	b,(_match_cmd_verb_p_1_1 + 2)
   0425 12s00r00           1116 	lcall	__gptrget
   0428 F5 82              1117 	mov	dpl,a
   042A 22                 1118 	ret
   042B                    1119 00102$:
                           1120 ;	led_ctrl.c:447: puts( "missing arg" );
   042B 90s02r7B           1121 	mov	dptr,#__str_3
   042E 75 F0 80           1122 	mov	b,#0x80
   0431 12s00r00           1123 	lcall	_puts
                           1124 ;	led_ctrl.c:448: return 0;
   0434 75 82 00           1125 	mov	dpl,#0x00
   0437 22                 1126 	ret
   0438                    1127 00108$:
                           1128 ;	led_ctrl.c:442: for( p = &commands[0]; *p->cmd_string; p++ ) {
   0438 74 05              1129 	mov	a,#0x05
   043A 2D                 1130 	add	a,r5
   043B FD                 1131 	mov	r5,a
   043C E4                 1132 	clr	a
   043D 3E                 1133 	addc	a,r6
   043E FE                 1134 	mov	r6,a
   043F 8D*18              1135 	mov	_match_cmd_verb_p_1_1,r5
   0441 8E*19              1136 	mov	(_match_cmd_verb_p_1_1 + 1),r6
   0443 8F*1A              1137 	mov	(_match_cmd_verb_p_1_1 + 2),r7
   0445 02s03r96           1138 	ljmp	00106$
   0448                    1139 00109$:
                           1140 ;	led_ctrl.c:452: return 0;
   0448 75 82 00           1141 	mov	dpl,#0x00
   044B 22                 1142 	ret
                           1143 ;------------------------------------------------------------
                           1144 ;Allocation info for local variables in function 'parse_cmd_buffer'
                           1145 ;------------------------------------------------------------
                           1146 ;i                         Allocated with name '_parse_cmd_buffer_i_1_1'
                           1147 ;p                         Allocated with name '_parse_cmd_buffer_sloc1_1_0'
                           1148 ;sloc0                     Allocated with name '_parse_cmd_buffer_sloc0_1_0'
                           1149 ;sloc1                     Allocated with name '_parse_cmd_buffer_sloc1_1_0'
                           1150 ;------------------------------------------------------------
                           1151 ;	led_ctrl.c:460: void  parse_cmd_buffer()
                           1152 ;	-----------------------------------------
                           1153 ;	 function parse_cmd_buffer
                           1154 ;	-----------------------------------------
   044C                    1155 _parse_cmd_buffer:
                           1156 ;	led_ctrl.c:463: char XDATA *p = cmd_buffer;
   044C 75*1Cr00           1157 	mov	_parse_cmd_buffer_sloc1_1_0,#_cmd_buffer
   044F 75*1Ds02           1158 	mov	(_parse_cmd_buffer_sloc1_1_0 + 1),#(_cmd_buffer >> 8)
                           1159 ;	led_ctrl.c:465: memset( arguments, 0, sizeof arguments );
   0452 75*00 00           1160 	mov	_memset_PARM_2,#0x00
   0455 75*00 0F           1161 	mov	_memset_PARM_3,#0x0F
   0458 E4                 1162 	clr	a
   0459 F5*01              1163 	mov	(_memset_PARM_3 + 1),a
   045B 90s00r05           1164 	mov	dptr,#_arguments
   045E 75 F0 40           1165 	mov	b,#0x40
   0461 12s00r00           1166 	lcall	_memset
                           1167 ;	led_ctrl.c:466: for( i = 0; i < MAXARGS; i++ ) {
   0464 75*1B 00           1168 	mov	_parse_cmd_buffer_i_1_1,#0x00
   0467                    1169 00113$:
   0467 74 FB              1170 	mov	a,#0x100 - 0x05
   0469 25*1B              1171 	add	a,_parse_cmd_buffer_i_1_1
   046B 50 01              1172 	jnc	00130$
   046D 22                 1173 	ret
   046E                    1174 00130$:
                           1175 ;	led_ctrl.c:468: while ( *p && isspace(*p) ) {
   046E AD*1C              1176 	mov	r5,_parse_cmd_buffer_sloc1_1_0
   0470 AE*1D              1177 	mov	r6,(_parse_cmd_buffer_sloc1_1_0 + 1)
   0472                    1178 00102$:
   0472 8D 82              1179 	mov	dpl,r5
   0474 8E 83              1180 	mov	dph,r6
   0476 E0                 1181 	movx	a,@dptr
   0477 FF                 1182 	mov	r7,a
   0478 60 18              1183 	jz	00128$
   047A 8F 82              1184 	mov	dpl,r7
   047C C0 05              1185 	push	ar5
   047E C0 06              1186 	push	ar6
   0480 12s00r00           1187 	lcall	_isspace
   0483 E5 82              1188 	mov	a,dpl
   0485 D0 06              1189 	pop	ar6
   0487 D0 05              1190 	pop	ar5
   0489 60 07              1191 	jz	00128$
                           1192 ;	led_ctrl.c:469: p++;
   048B 0D                 1193 	inc	r5
   048C BD 00 E3           1194 	cjne	r5,#0x00,00102$
   048F 0E                 1195 	inc	r6
   0490 80 E0              1196 	sjmp	00102$
   0492                    1197 00128$:
   0492 8D*1C              1198 	mov	_parse_cmd_buffer_sloc1_1_0,r5
   0494 8E*1D              1199 	mov	(_parse_cmd_buffer_sloc1_1_0 + 1),r6
                           1200 ;	led_ctrl.c:471: if ( *p == 0 )
   0496 8D 82              1201 	mov	dpl,r5
   0498 8E 83              1202 	mov	dph,r6
   049A E0                 1203 	movx	a,@dptr
   049B 70 01              1204 	jnz	00106$
                           1205 ;	led_ctrl.c:472: return;
   049D 22                 1206 	ret
   049E                    1207 00106$:
                           1208 ;	led_ctrl.c:473: arguments[i] = p;       // record where arg starts
   049E E5*1B              1209 	mov	a,_parse_cmd_buffer_i_1_1
   04A0 75 F0 03           1210 	mov	b,#0x03
   04A3 A4                 1211 	mul	ab
   04A4 24r05              1212 	add	a,#_arguments
   04A6 F8                 1213 	mov	r0,a
   04A7 AF*1C              1214 	mov	r7,_parse_cmd_buffer_sloc1_1_0
   04A9 AC*1D              1215 	mov	r4,(_parse_cmd_buffer_sloc1_1_0 + 1)
   04AB 7A 00              1216 	mov	r2,#0x0
   04AD A6 07              1217 	mov	@r0,ar7
   04AF 08                 1218 	inc	r0
   04B0 A6 04              1219 	mov	@r0,ar4
   04B2 08                 1220 	inc	r0
   04B3 A6 02              1221 	mov	@r0,ar2
   04B5 18                 1222 	dec	r0
   04B6 18                 1223 	dec	r0
                           1224 ;	led_ctrl.c:475: while( *p && !isspace(*p) ) {
   04B7 8D 02              1225 	mov	ar2,r5
   04B9 8E 03              1226 	mov	ar3,r6
   04BB                    1227 00108$:
   04BB 8A 82              1228 	mov	dpl,r2
   04BD 8B 83              1229 	mov	dph,r3
   04BF E0                 1230 	movx	a,@dptr
   04C0 FC                 1231 	mov	r4,a
   04C1 60 18              1232 	jz	00129$
   04C3 8C 82              1233 	mov	dpl,r4
   04C5 C0 02              1234 	push	ar2
   04C7 C0 03              1235 	push	ar3
   04C9 12s00r00           1236 	lcall	_isspace
   04CC E5 82              1237 	mov	a,dpl
   04CE D0 03              1238 	pop	ar3
   04D0 D0 02              1239 	pop	ar2
   04D2 70 07              1240 	jnz	00129$
                           1241 ;	led_ctrl.c:476: p++;
   04D4 0A                 1242 	inc	r2
   04D5 BA 00 E3           1243 	cjne	r2,#0x00,00108$
   04D8 0B                 1244 	inc	r3
   04D9 80 E0              1245 	sjmp	00108$
   04DB                    1246 00129$:
   04DB 8A*1C              1247 	mov	_parse_cmd_buffer_sloc1_1_0,r2
   04DD 8B*1D              1248 	mov	(_parse_cmd_buffer_sloc1_1_0 + 1),r3
                           1249 ;	led_ctrl.c:478: if ( *p == 0 )
   04DF 8A 82              1250 	mov	dpl,r2
   04E1 8B 83              1251 	mov	dph,r3
   04E3 E0                 1252 	movx	a,@dptr
   04E4 70 01              1253 	jnz	00115$
                           1254 ;	led_ctrl.c:479: return;
   04E6 22                 1255 	ret
   04E7                    1256 00115$:
                           1257 ;	led_ctrl.c:466: for( i = 0; i < MAXARGS; i++ ) {
   04E7 05*1B              1258 	inc	_parse_cmd_buffer_i_1_1
   04E9 02s04r67           1259 	ljmp	00113$
                           1260 ;------------------------------------------------------------
                           1261 ;Allocation info for local variables in function 'enforce_range'
                           1262 ;------------------------------------------------------------
                           1263 ;minlimit                  Allocated with name '_enforce_range_PARM_2'
                           1264 ;maxlimit                  Allocated with name '_enforce_range_PARM_3'
                           1265 ;itemname                  Allocated with name '_enforce_range_PARM_4'
                           1266 ;desiredval                Allocated to registers r2 r3 
                           1267 ;------------------------------------------------------------
                           1268 ;	led_ctrl.c:489: int     enforce_range ( int desiredval, int minlimit, int maxlimit, char *itemname )
                           1269 ;	-----------------------------------------
                           1270 ;	 function enforce_range
                           1271 ;	-----------------------------------------
   04EC                    1272 _enforce_range:
   04EC AA 82              1273 	mov	r2,dpl
   04EE AB 83              1274 	mov	r3,dph
                           1275 ;	led_ctrl.c:491: if ( desiredval < minlimit ) {
   04F0 C3                 1276 	clr	c
   04F1 EA                 1277 	mov	a,r2
   04F2 95*1E              1278 	subb	a,_enforce_range_PARM_2
   04F4 EB                 1279 	mov	a,r3
   04F5 64 80              1280 	xrl	a,#0x80
   04F7 85*1F F0           1281 	mov	b,(_enforce_range_PARM_2 + 1)
   04FA 63 F0 80           1282 	xrl	b,#0x80
   04FD 95 F0              1283 	subb	a,b
   04FF 50 2E              1284 	jnc	00102$
                           1285 ;	led_ctrl.c:492: printf ( "%s must be between %d and %d.  Setting to %d\n",
   0501 C0*1E              1286 	push	_enforce_range_PARM_2
   0503 C0*1F              1287 	push	(_enforce_range_PARM_2 + 1)
   0505 C0*20              1288 	push	_enforce_range_PARM_3
   0507 C0*21              1289 	push	(_enforce_range_PARM_3 + 1)
   0509 C0*1E              1290 	push	_enforce_range_PARM_2
   050B C0*1F              1291 	push	(_enforce_range_PARM_2 + 1)
   050D C0*22              1292 	push	_enforce_range_PARM_4
   050F C0*23              1293 	push	(_enforce_range_PARM_4 + 1)
   0511 C0*24              1294 	push	(_enforce_range_PARM_4 + 2)
   0513 74r87              1295 	mov	a,#__str_4
   0515 C0 E0              1296 	push	acc
   0517 74s02              1297 	mov	a,#(__str_4 >> 8)
   0519 C0 E0              1298 	push	acc
   051B 74 80              1299 	mov	a,#0x80
   051D C0 E0              1300 	push	acc
   051F 12s00r00           1301 	lcall	_printf
   0522 E5 81              1302 	mov	a,sp
   0524 24 F4              1303 	add	a,#0xf4
   0526 F5 81              1304 	mov	sp,a
                           1305 ;	led_ctrl.c:494: return minlimit;
   0528 85*1E 82           1306 	mov	dpl,_enforce_range_PARM_2
   052B 85*1F 83           1307 	mov	dph,(_enforce_range_PARM_2 + 1)
   052E 22                 1308 	ret
   052F                    1309 00102$:
                           1310 ;	led_ctrl.c:496: if ( desiredval > maxlimit ) {
   052F C3                 1311 	clr	c
   0530 E5*20              1312 	mov	a,_enforce_range_PARM_3
   0532 9A                 1313 	subb	a,r2
   0533 E5*21              1314 	mov	a,(_enforce_range_PARM_3 + 1)
   0535 64 80              1315 	xrl	a,#0x80
   0537 8B F0              1316 	mov	b,r3
   0539 63 F0 80           1317 	xrl	b,#0x80
   053C 95 F0              1318 	subb	a,b
   053E 50 2E              1319 	jnc	00104$
                           1320 ;	led_ctrl.c:497: printf ( "%s must be between %d and %d.  Setting to %d\n",
   0540 C0*20              1321 	push	_enforce_range_PARM_3
   0542 C0*21              1322 	push	(_enforce_range_PARM_3 + 1)
   0544 C0*20              1323 	push	_enforce_range_PARM_3
   0546 C0*21              1324 	push	(_enforce_range_PARM_3 + 1)
   0548 C0*1E              1325 	push	_enforce_range_PARM_2
   054A C0*1F              1326 	push	(_enforce_range_PARM_2 + 1)
   054C C0*22              1327 	push	_enforce_range_PARM_4
   054E C0*23              1328 	push	(_enforce_range_PARM_4 + 1)
   0550 C0*24              1329 	push	(_enforce_range_PARM_4 + 2)
   0552 74r87              1330 	mov	a,#__str_4
   0554 C0 E0              1331 	push	acc
   0556 74s02              1332 	mov	a,#(__str_4 >> 8)
   0558 C0 E0              1333 	push	acc
   055A 74 80              1334 	mov	a,#0x80
   055C C0 E0              1335 	push	acc
   055E 12s00r00           1336 	lcall	_printf
   0561 E5 81              1337 	mov	a,sp
   0563 24 F4              1338 	add	a,#0xf4
   0565 F5 81              1339 	mov	sp,a
                           1340 ;	led_ctrl.c:499: return maxlimit;
   0567 85*20 82           1341 	mov	dpl,_enforce_range_PARM_3
   056A 85*21 83           1342 	mov	dph,(_enforce_range_PARM_3 + 1)
   056D 22                 1343 	ret
   056E                    1344 00104$:
                           1345 ;	led_ctrl.c:501: return desiredval;
   056E 8A 82              1346 	mov	dpl,r2
   0570 8B 83              1347 	mov	dph,r3
   0572 22                 1348 	ret
                           1349 ;------------------------------------------------------------
                           1350 ;Allocation info for local variables in function 'onoff_bool'
                           1351 ;------------------------------------------------------------
                           1352 ;s                         Allocated to registers r2 r3 r4 
                           1353 ;------------------------------------------------------------
                           1354 ;	led_ctrl.c:511: BOOL    onoff_bool( char *s )
                           1355 ;	-----------------------------------------
                           1356 ;	 function onoff_bool
                           1357 ;	-----------------------------------------
   0573                    1358 _onoff_bool:
   0573 AA 82              1359 	mov	r2,dpl
   0575 AB 83              1360 	mov	r3,dph
   0577 AC F0              1361 	mov	r4,b
                           1362 ;	led_ctrl.c:513: if ( s == NULL ) 
   0579 BA 00 08           1363 	cjne	r2,#0x00,00102$
   057C BB 00 05           1364 	cjne	r3,#0x00,00102$
   057F BC 00 02           1365 	cjne	r4,#0x00,00102$
                           1366 ;	led_ctrl.c:514: return false;
   0582 C3                 1367 	clr	c
   0583 22                 1368 	ret
   0584                    1369 00102$:
                           1370 ;	led_ctrl.c:515: if ( STRMATCH2( s, "true" ) ) 
   0584 75*00rB5           1371 	mov	_strncmp_PARM_2,#__str_5
   0587 75*01s02           1372 	mov	(_strncmp_PARM_2 + 1),#(__str_5 >> 8)
   058A 75*02 80           1373 	mov	(_strncmp_PARM_2 + 2),#0x80
   058D 75*00 02           1374 	mov	_strncmp_PARM_3,#0x02
   0590 E4                 1375 	clr	a
   0591 F5*01              1376 	mov	(_strncmp_PARM_3 + 1),a
   0593 8A 82              1377 	mov	dpl,r2
   0595 8B 83              1378 	mov	dph,r3
   0597 8C F0              1379 	mov	b,r4
   0599 C0 02              1380 	push	ar2
   059B C0 03              1381 	push	ar3
   059D C0 04              1382 	push	ar4
   059F 12s00r00           1383 	lcall	_strncmp
   05A2 E5 82              1384 	mov	a,dpl
   05A4 85 83 F0           1385 	mov	b,dph
   05A7 D0 04              1386 	pop	ar4
   05A9 D0 03              1387 	pop	ar3
   05AB D0 02              1388 	pop	ar2
   05AD 45 F0              1389 	orl	a,b
   05AF 70 02              1390 	jnz	00104$
                           1391 ;	led_ctrl.c:516: return true;
   05B1 D3                 1392 	setb	c
   05B2 22                 1393 	ret
   05B3                    1394 00104$:
                           1395 ;	led_ctrl.c:517: if ( STRMATCH2( s, "on" ) ) 
   05B3 75*00rBA           1396 	mov	_strncmp_PARM_2,#__str_6
   05B6 75*01s02           1397 	mov	(_strncmp_PARM_2 + 1),#(__str_6 >> 8)
   05B9 75*02 80           1398 	mov	(_strncmp_PARM_2 + 2),#0x80
   05BC 75*00 02           1399 	mov	_strncmp_PARM_3,#0x02
   05BF E4                 1400 	clr	a
   05C0 F5*01              1401 	mov	(_strncmp_PARM_3 + 1),a
   05C2 8A 82              1402 	mov	dpl,r2
   05C4 8B 83              1403 	mov	dph,r3
   05C6 8C F0              1404 	mov	b,r4
   05C8 C0 02              1405 	push	ar2
   05CA C0 03              1406 	push	ar3
   05CC C0 04              1407 	push	ar4
   05CE 12s00r00           1408 	lcall	_strncmp
   05D1 E5 82              1409 	mov	a,dpl
   05D3 85 83 F0           1410 	mov	b,dph
   05D6 D0 04              1411 	pop	ar4
   05D8 D0 03              1412 	pop	ar3
   05DA D0 02              1413 	pop	ar2
   05DC 45 F0              1414 	orl	a,b
   05DE 70 02              1415 	jnz	00106$
                           1416 ;	led_ctrl.c:518: return true;
   05E0 D3                 1417 	setb	c
   05E1 22                 1418 	ret
   05E2                    1419 00106$:
                           1420 ;	led_ctrl.c:519: if ( STRMATCH2( s, "false" ) ) 
   05E2 75*00rBD           1421 	mov	_strncmp_PARM_2,#__str_7
   05E5 75*01s02           1422 	mov	(_strncmp_PARM_2 + 1),#(__str_7 >> 8)
   05E8 75*02 80           1423 	mov	(_strncmp_PARM_2 + 2),#0x80
   05EB 75*00 02           1424 	mov	_strncmp_PARM_3,#0x02
   05EE E4                 1425 	clr	a
   05EF F5*01              1426 	mov	(_strncmp_PARM_3 + 1),a
   05F1 8A 82              1427 	mov	dpl,r2
   05F3 8B 83              1428 	mov	dph,r3
   05F5 8C F0              1429 	mov	b,r4
   05F7 C0 02              1430 	push	ar2
   05F9 C0 03              1431 	push	ar3
   05FB C0 04              1432 	push	ar4
   05FD 12s00r00           1433 	lcall	_strncmp
   0600 E5 82              1434 	mov	a,dpl
   0602 85 83 F0           1435 	mov	b,dph
   0605 D0 04              1436 	pop	ar4
   0607 D0 03              1437 	pop	ar3
   0609 D0 02              1438 	pop	ar2
   060B 45 F0              1439 	orl	a,b
   060D 70 02              1440 	jnz	00108$
                           1441 ;	led_ctrl.c:520: return false;
   060F C3                 1442 	clr	c
   0610 22                 1443 	ret
   0611                    1444 00108$:
                           1445 ;	led_ctrl.c:521: if ( STRMATCH2( s, "off" ) ) 
   0611 75*00rC3           1446 	mov	_strncmp_PARM_2,#__str_8
   0614 75*01s02           1447 	mov	(_strncmp_PARM_2 + 1),#(__str_8 >> 8)
   0617 75*02 80           1448 	mov	(_strncmp_PARM_2 + 2),#0x80
   061A 75*00 02           1449 	mov	_strncmp_PARM_3,#0x02
   061D E4                 1450 	clr	a
   061E F5*01              1451 	mov	(_strncmp_PARM_3 + 1),a
   0620 8A 82              1452 	mov	dpl,r2
   0622 8B 83              1453 	mov	dph,r3
   0624 8C F0              1454 	mov	b,r4
   0626 C0 02              1455 	push	ar2
   0628 C0 03              1456 	push	ar3
   062A C0 04              1457 	push	ar4
   062C 12s00r00           1458 	lcall	_strncmp
   062F E5 82              1459 	mov	a,dpl
   0631 85 83 F0           1460 	mov	b,dph
   0634 D0 04              1461 	pop	ar4
   0636 D0 03              1462 	pop	ar3
   0638 D0 02              1463 	pop	ar2
   063A 45 F0              1464 	orl	a,b
   063C 70 02              1465 	jnz	00110$
                           1466 ;	led_ctrl.c:522: return false;
   063E C3                 1467 	clr	c
   063F 22                 1468 	ret
   0640                    1469 00110$:
                           1470 ;	led_ctrl.c:523: if ( isdigit( *s ) ) 
   0640 8A 82              1471 	mov	dpl,r2
   0642 8B 83              1472 	mov	dph,r3
   0644 8C F0              1473 	mov	b,r4
   0646 12s00r00           1474 	lcall	__gptrget
   0649 F5 82              1475 	mov	dpl,a
   064B C0 02              1476 	push	ar2
   064D C0 03              1477 	push	ar3
   064F C0 04              1478 	push	ar4
   0651 12s00r00           1479 	lcall	_isdigit
   0654 E5 82              1480 	mov	a,dpl
   0656 D0 04              1481 	pop	ar4
   0658 D0 03              1482 	pop	ar3
   065A D0 02              1483 	pop	ar2
   065C 60 12              1484 	jz	00112$
                           1485 ;	led_ctrl.c:524: return( atoi( s ) );
   065E 8A 82              1486 	mov	dpl,r2
   0660 8B 83              1487 	mov	dph,r3
   0662 8C F0              1488 	mov	b,r4
   0664 12s00r00           1489 	lcall	_atoi
   0667 AA 82              1490 	mov	r2,dpl
   0669 AB 83              1491 	mov	r3,dph
   066B EA                 1492 	mov	a,r2
   066C 4B                 1493 	orl	a,r3
   066D 24 FF              1494 	add	a,#0xff
   066F 22                 1495 	ret
   0670                    1496 00112$:
                           1497 ;	led_ctrl.c:526: return false;
   0670 C3                 1498 	clr	c
   0671 22                 1499 	ret
                           1500 ;------------------------------------------------------------
                           1501 ;Allocation info for local variables in function 'xdigitvalue'
                           1502 ;------------------------------------------------------------
                           1503 ;c                         Allocated to registers r2 
                           1504 ;a                         Allocated to registers r3 
                           1505 ;------------------------------------------------------------
                           1506 ;	led_ctrl.c:534: u_int8  xdigitvalue( char c )
                           1507 ;	-----------------------------------------
                           1508 ;	 function xdigitvalue
                           1509 ;	-----------------------------------------
   0672                    1510 _xdigitvalue:
                           1511 ;	led_ctrl.c:538: if ( isdigit( c ) )
   0672 AA 82              1512 	mov  r2,dpl
   0674 C0 02              1513 	push	ar2
   0676 12s00r00           1514 	lcall	_isdigit
   0679 E5 82              1515 	mov	a,dpl
   067B D0 02              1516 	pop	ar2
   067D 60 06              1517 	jz	00110$
                           1518 ;	led_ctrl.c:539: a = c - '0';
   067F EA                 1519 	mov	a,r2
   0680 24 D0              1520 	add	a,#0xd0
   0682 FB                 1521 	mov	r3,a
   0683 80 34              1522 	sjmp	00111$
   0685                    1523 00110$:
                           1524 ;	led_ctrl.c:540: else if ( 'a' <= c && c <= 'f' )
   0685 C3                 1525 	clr	c
   0686 EA                 1526 	mov	a,r2
   0687 64 80              1527 	xrl	a,#0x80
   0689 94 E1              1528 	subb	a,#0xe1
   068B 40 11              1529 	jc	00106$
   068D 74 E6              1530 	mov	a,#(0x66 ^ 0x80)
   068F 8A F0              1531 	mov	b,r2
   0691 63 F0 80           1532 	xrl	b,#0x80
   0694 95 F0              1533 	subb	a,b
   0696 40 06              1534 	jc	00106$
                           1535 ;	led_ctrl.c:541: a = c - 'a' + 10;
   0698 74 A9              1536 	mov	a,#0xA9
   069A 2A                 1537 	add	a,r2
   069B FB                 1538 	mov	r3,a
   069C 80 1B              1539 	sjmp	00111$
   069E                    1540 00106$:
                           1541 ;	led_ctrl.c:542: else if ( 'A' <= c && c <= 'F' )
   069E C3                 1542 	clr	c
   069F EA                 1543 	mov	a,r2
   06A0 64 80              1544 	xrl	a,#0x80
   06A2 94 C1              1545 	subb	a,#0xc1
   06A4 40 11              1546 	jc	00102$
   06A6 74 C6              1547 	mov	a,#(0x46 ^ 0x80)
   06A8 8A F0              1548 	mov	b,r2
   06AA 63 F0 80           1549 	xrl	b,#0x80
   06AD 95 F0              1550 	subb	a,b
   06AF 40 06              1551 	jc	00102$
                           1552 ;	led_ctrl.c:543: a = c - 'A' + 10;
   06B1 74 C9              1553 	mov	a,#0xC9
   06B3 2A                 1554 	add	a,r2
   06B4 FB                 1555 	mov	r3,a
   06B5 80 02              1556 	sjmp	00111$
   06B7                    1557 00102$:
                           1558 ;	led_ctrl.c:545: a = 0;
   06B7 7B 00              1559 	mov	r3,#0x00
   06B9                    1560 00111$:
                           1561 ;	led_ctrl.c:546: return ( a );
   06B9 8B 82              1562 	mov	dpl,r3
   06BB 22                 1563 	ret
                           1564 ;------------------------------------------------------------
                           1565 ;Allocation info for local variables in function 'xdigits_decoded'
                           1566 ;------------------------------------------------------------
                           1567 ;c2                        Allocated with name '_xdigits_decoded_PARM_2'
                           1568 ;c1                        Allocated to registers 
                           1569 ;a                         Allocated to registers r2 
                           1570 ;b                         Allocated to registers r3 
                           1571 ;------------------------------------------------------------
                           1572 ;	led_ctrl.c:555: u_int8  xdigits_decoded( char c1, char c2 )
                           1573 ;	-----------------------------------------
                           1574 ;	 function xdigits_decoded
                           1575 ;	-----------------------------------------
   06BC                    1576 _xdigits_decoded:
                           1577 ;	led_ctrl.c:559: a = xdigitvalue( c1 );
   06BC 12s06r72           1578 	lcall	_xdigitvalue
   06BF AA 82              1579 	mov	r2,dpl
                           1580 ;	led_ctrl.c:560: b = xdigitvalue( c2 );
   06C1 85*25 82           1581 	mov	dpl,_xdigits_decoded_PARM_2
   06C4 C0 02              1582 	push	ar2
   06C6 12s06r72           1583 	lcall	_xdigitvalue
   06C9 AB 82              1584 	mov	r3,dpl
   06CB D0 02              1585 	pop	ar2
                           1586 ;	led_ctrl.c:561: return ( a << 4 | b );
   06CD EA                 1587 	mov	a,r2
   06CE C4                 1588 	swap	a
   06CF 54 F0              1589 	anl	a,#0xf0
   06D1 4B                 1590 	orl	a,r3
   06D2 F5 82              1591 	mov	dpl,a
   06D4 22                 1592 	ret
                           1593 ;------------------------------------------------------------
                           1594 ;Allocation info for local variables in function 'led_data_cmd'
                           1595 ;------------------------------------------------------------
                           1596 ;nbytes                    Allocated with name '_led_data_cmd_PARM_2'
                           1597 ;hexdata                   Allocated with name '_led_data_cmd_PARM_3'
                           1598 ;offset                    Allocated to registers r2 r3 
                           1599 ;p                         Allocated to registers r6 r7 r0 
                           1600 ;c1                        Allocated with name '_led_data_cmd_c1_1_1'
                           1601 ;c2                        Allocated to registers r1 
                           1602 ;x                         Allocated to registers 
                           1603 ;------------------------------------------------------------
                           1604 ;	led_ctrl.c:574: void  led_data_cmd( unsigned int offset, int nbytes, char *hexdata )
                           1605 ;	-----------------------------------------
                           1606 ;	 function led_data_cmd
                           1607 ;	-----------------------------------------
   06D5                    1608 _led_data_cmd:
   06D5 AA 82              1609 	mov	r2,dpl
   06D7 AB 83              1610 	mov	r3,dph
                           1611 ;	led_ctrl.c:580: if ( offset >= (nrows*ncols) ) {
   06D9 85*00 F0           1612 	mov	b,_nrows
   06DC E5*02              1613 	mov	a,_ncols
   06DE A4                 1614 	mul	ab
   06DF FC                 1615 	mov	r4,a
   06E0 AD F0              1616 	mov	r5,b
   06E2 C3                 1617 	clr	c
   06E3 EA                 1618 	mov	a,r2
   06E4 9C                 1619 	subb	a,r4
   06E5 EB                 1620 	mov	a,r3
   06E6 9D                 1621 	subb	a,r5
   06E7 40 09              1622 	jc	00102$
                           1623 ;	led_ctrl.c:581: puts( "ERR addr" );
   06E9 90s02rC7           1624 	mov	dptr,#__str_9
   06EC 75 F0 80           1625 	mov	b,#0x80
                           1626 ;	led_ctrl.c:582: return;
   06EF 02s00r00           1627 	ljmp	_puts
   06F2                    1628 00102$:
                           1629 ;	led_ctrl.c:584: if ( nbytes < 1 || (offset + nbytes) >= (ncols*nrows_div_8) ) {
   06F2 C3                 1630 	clr	c
   06F3 E5*26              1631 	mov	a,_led_data_cmd_PARM_2
   06F5 94 01              1632 	subb	a,#0x01
   06F7 E5*27              1633 	mov	a,(_led_data_cmd_PARM_2 + 1)
   06F9 64 80              1634 	xrl	a,#0x80
   06FB 94 80              1635 	subb	a,#0x80
   06FD 40 1A              1636 	jc	00103$
   06FF AC*26              1637 	mov	r4,_led_data_cmd_PARM_2
   0701 AD*27              1638 	mov	r5,(_led_data_cmd_PARM_2 + 1)
   0703 EC                 1639 	mov	a,r4
   0704 2A                 1640 	add	a,r2
   0705 FE                 1641 	mov	r6,a
   0706 ED                 1642 	mov	a,r5
   0707 3B                 1643 	addc	a,r3
   0708 FF                 1644 	mov	r7,a
   0709 85*02 F0           1645 	mov	b,_ncols
   070C E5*01              1646 	mov	a,_nrows_div_8
   070E A4                 1647 	mul	ab
   070F F8                 1648 	mov	r0,a
   0710 A9 F0              1649 	mov	r1,b
   0712 C3                 1650 	clr	c
   0713 EE                 1651 	mov	a,r6
   0714 98                 1652 	subb	a,r0
   0715 EF                 1653 	mov	a,r7
   0716 99                 1654 	subb	a,r1
   0717 40 09              1655 	jc	00104$
   0719                    1656 00103$:
                           1657 ;	led_ctrl.c:585: puts( "ERR len" );
   0719 90s02rD0           1658 	mov	dptr,#__str_10
   071C 75 F0 80           1659 	mov	b,#0x80
                           1660 ;	led_ctrl.c:586: return;
   071F 02s00r00           1661 	ljmp	_puts
   0722                    1662 00104$:
                           1663 ;	led_ctrl.c:589: for ( p = hexdata; nbytes > 0; nbytes--, offset++ ) {
   0722 AE*28              1664 	mov	r6,_led_data_cmd_PARM_3
   0724 AF*29              1665 	mov	r7,(_led_data_cmd_PARM_3 + 1)
   0726 A8*2A              1666 	mov	r0,(_led_data_cmd_PARM_3 + 2)
   0728                    1667 00109$:
   0728 C3                 1668 	clr	c
   0729 E4                 1669 	clr	a
   072A 9C                 1670 	subb	a,r4
   072B 74 80              1671 	mov	a,#(0x00 ^ 0x80)
   072D 8D F0              1672 	mov	b,r5
   072F 63 F0 80           1673 	xrl	b,#0x80
   0732 95 F0              1674 	subb	a,b
   0734 40 03              1675 	jc	00123$
   0736 02s08r00           1676 	ljmp	00112$
   0739                    1677 00123$:
                           1678 ;	led_ctrl.c:590: c1 = *p++;
   0739 8E 82              1679 	mov	dpl,r6
   073B 8F 83              1680 	mov	dph,r7
   073D 88 F0              1681 	mov	b,r0
   073F 12s00r00           1682 	lcall	__gptrget
   0742 F5*2B              1683 	mov	_led_data_cmd_c1_1_1,a
   0744 A3                 1684 	inc	dptr
                           1685 ;	led_ctrl.c:591: c2 = *p++;
   0745 88 F0              1686 	mov	b,r0
   0747 12s00r00           1687 	lcall	__gptrget
   074A F9                 1688 	mov	r1,a
   074B A3                 1689 	inc	dptr
   074C AE 82              1690 	mov	r6,dpl
   074E AF 83              1691 	mov	r7,dph
                           1692 ;	led_ctrl.c:592: if ( !isxdigit(c1)  || !isxdigit(c2) ) {
   0750 85*2B 82           1693 	mov	dpl,_led_data_cmd_c1_1_1
   0753 C0 02              1694 	push	ar2
   0755 C0 03              1695 	push	ar3
   0757 C0 04              1696 	push	ar4
   0759 C0 05              1697 	push	ar5
   075B C0 06              1698 	push	ar6
   075D C0 07              1699 	push	ar7
   075F C0 00              1700 	push	ar0
   0761 C0 01              1701 	push	ar1
   0763 12s00r00           1702 	lcall	_isxdigit
   0766 E5 82              1703 	mov	a,dpl
   0768 D0 01              1704 	pop	ar1
   076A D0 00              1705 	pop	ar0
   076C D0 07              1706 	pop	ar7
   076E D0 06              1707 	pop	ar6
   0770 D0 05              1708 	pop	ar5
   0772 D0 04              1709 	pop	ar4
   0774 D0 03              1710 	pop	ar3
   0776 D0 02              1711 	pop	ar2
   0778 60 29              1712 	jz	00106$
   077A 89 82              1713 	mov	dpl,r1
   077C C0 02              1714 	push	ar2
   077E C0 03              1715 	push	ar3
   0780 C0 04              1716 	push	ar4
   0782 C0 05              1717 	push	ar5
   0784 C0 06              1718 	push	ar6
   0786 C0 07              1719 	push	ar7
   0788 C0 00              1720 	push	ar0
   078A C0 01              1721 	push	ar1
   078C 12s00r00           1722 	lcall	_isxdigit
   078F E5 82              1723 	mov	a,dpl
   0791 D0 01              1724 	pop	ar1
   0793 D0 00              1725 	pop	ar0
   0795 D0 07              1726 	pop	ar7
   0797 D0 06              1727 	pop	ar6
   0799 D0 05              1728 	pop	ar5
   079B D0 04              1729 	pop	ar4
   079D D0 03              1730 	pop	ar3
   079F D0 02              1731 	pop	ar2
   07A1 70 09              1732 	jnz	00107$
   07A3                    1733 00106$:
                           1734 ;	led_ctrl.c:593: puts( "ERR non-hex" );
   07A3 90s02rD8           1735 	mov	dptr,#__str_11
   07A6 75 F0 80           1736 	mov	b,#0x80
                           1737 ;	led_ctrl.c:594: return;
   07A9 02s00r00           1738 	ljmp	_puts
   07AC                    1739 00107$:
                           1740 ;	led_ctrl.c:596: x = xdigits_decoded( c1, c2 );
   07AC 89*25              1741 	mov	_xdigits_decoded_PARM_2,r1
   07AE 85*2B 82           1742 	mov	dpl,_led_data_cmd_c1_1_1
   07B1 C0 02              1743 	push	ar2
   07B3 C0 03              1744 	push	ar3
   07B5 C0 04              1745 	push	ar4
   07B7 C0 05              1746 	push	ar5
   07B9 C0 06              1747 	push	ar6
   07BB C0 07              1748 	push	ar7
   07BD C0 00              1749 	push	ar0
   07BF 12s06rBC           1750 	lcall	_xdigits_decoded
   07C2 D0 00              1751 	pop	ar0
   07C4 D0 07              1752 	pop	ar7
   07C6 D0 06              1753 	pop	ar6
   07C8 D0 05              1754 	pop	ar5
   07CA D0 04              1755 	pop	ar4
   07CC D0 03              1756 	pop	ar3
   07CE D0 02              1757 	pop	ar2
                           1758 ;	led_ctrl.c:597: led_store8_offset( x, offset );
   07D0 8A*00              1759 	mov	_led_store8_offset_PARM_2,r2
   07D2 8B*01              1760 	mov	(_led_store8_offset_PARM_2 + 1),r3
   07D4 C0 02              1761 	push	ar2
   07D6 C0 03              1762 	push	ar3
   07D8 C0 04              1763 	push	ar4
   07DA C0 05              1764 	push	ar5
   07DC C0 06              1765 	push	ar6
   07DE C0 07              1766 	push	ar7
   07E0 C0 00              1767 	push	ar0
   07E2 12s00r00           1768 	lcall	_led_store8_offset
   07E5 D0 00              1769 	pop	ar0
   07E7 D0 07              1770 	pop	ar7
   07E9 D0 06              1771 	pop	ar6
   07EB D0 05              1772 	pop	ar5
   07ED D0 04              1773 	pop	ar4
   07EF D0 03              1774 	pop	ar3
   07F1 D0 02              1775 	pop	ar2
                           1776 ;	led_ctrl.c:589: for ( p = hexdata; nbytes > 0; nbytes--, offset++ ) {
   07F3 1C                 1777 	dec	r4
   07F4 BC FF 01           1778 	cjne	r4,#0xff,00126$
   07F7 1D                 1779 	dec	r5
   07F8                    1780 00126$:
   07F8 0A                 1781 	inc	r2
   07F9 BA 00 01           1782 	cjne	r2,#0x00,00127$
   07FC 0B                 1783 	inc	r3
   07FD                    1784 00127$:
   07FD 02s07r28           1785 	ljmp	00109$
   0800                    1786 00112$:
                           1787 ;	led_ctrl.c:600: puts( "OK" );
   0800 90s02rE4           1788 	mov	dptr,#__str_12
   0803 75 F0 80           1789 	mov	b,#0x80
   0806 02s00r00           1790 	ljmp	_puts
                           1791 ;------------------------------------------------------------
                           1792 ;Allocation info for local variables in function 'led_debug'
                           1793 ;------------------------------------------------------------
                           1794 ;row                       Allocated to registers r3 
                           1795 ;col                       Allocated to registers r2 
                           1796 ;------------------------------------------------------------
                           1797 ;	led_ctrl.c:625: void  led_debug()
                           1798 ;	-----------------------------------------
                           1799 ;	 function led_debug
                           1800 ;	-----------------------------------------
   0809                    1801 _led_debug:
                           1802 ;	led_ctrl.c:630: nrows,   nrows_div_8,   ncols,   nled_boards );
   0809 AA*02              1803 	mov	r2,_ncols
   080B 7B 00              1804 	mov	r3,#0x00
   080D AC*01              1805 	mov	r4,_nrows_div_8
   080F 7D 00              1806 	mov	r5,#0x00
   0811 AE*00              1807 	mov	r6,_nrows
   0813 7F 00              1808 	mov	r7,#0x00
                           1809 ;	led_ctrl.c:629: printf( "DEBUG data nrows %d nrows_div_8 %d ncols %d nled_boards %d\n" ,
   0815 C0*03              1810 	push	_nled_boards
   0817 C0*04              1811 	push	(_nled_boards + 1)
   0819 C0 02              1812 	push	ar2
   081B C0 03              1813 	push	ar3
   081D C0 04              1814 	push	ar4
   081F C0 05              1815 	push	ar5
   0821 C0 06              1816 	push	ar6
   0823 C0 07              1817 	push	ar7
   0825 74rE7              1818 	mov	a,#__str_13
   0827 C0 E0              1819 	push	acc
   0829 74s02              1820 	mov	a,#(__str_13 >> 8)
   082B C0 E0              1821 	push	acc
   082D 74 80              1822 	mov	a,#0x80
   082F C0 E0              1823 	push	acc
   0831 12s00r00           1824 	lcall	_printf
   0834 E5 81              1825 	mov	a,sp
   0836 24 F5              1826 	add	a,#0xf5
   0838 F5 81              1827 	mov	sp,a
                           1828 ;	led_ctrl.c:631: puts( "led_data:" );
   083A 90s03r23           1829 	mov	dptr,#__str_14
   083D 75 F0 80           1830 	mov	b,#0x80
   0840 12s00r00           1831 	lcall	_puts
                           1832 ;	led_ctrl.c:634: for( col = 1; col <= ncols; col++ ) {
   0843 7A 01              1833 	mov	r2,#0x01
   0845                    1834 00111$:
   0845 C3                 1835 	clr	c
   0846 E5*02              1836 	mov	a,_ncols
   0848 9A                 1837 	subb	a,r2
   0849 50 03              1838 	jnc	00126$
   084B 02s09r1B           1839 	ljmp	00114$
   084E                    1840 00126$:
                           1841 ;	led_ctrl.c:635: if ( col > 1 ) {
   084E EA                 1842 	mov	a,r2
   084F 24 FE              1843 	add	a,#0xff - 0x01
   0851 50 0D              1844 	jnc	00102$
                           1845 ;	led_ctrl.c:636: puts("");
   0853 90s03r2D           1846 	mov	dptr,#__str_15
   0856 75 F0 80           1847 	mov	b,#0x80
   0859 C0 02              1848 	push	ar2
   085B 12s00r00           1849 	lcall	_puts
   085E D0 02              1850 	pop	ar2
   0860                    1851 00102$:
                           1852 ;	led_ctrl.c:638: printf( "%04d: ", col );
   0860 8A 03              1853 	mov	ar3,r2
   0862 7C 00              1854 	mov	r4,#0x00
   0864 C0 02              1855 	push	ar2
   0866 C0 03              1856 	push	ar3
   0868 C0 04              1857 	push	ar4
   086A 74r2E              1858 	mov	a,#__str_16
   086C C0 E0              1859 	push	acc
   086E 74s03              1860 	mov	a,#(__str_16 >> 8)
   0870 C0 E0              1861 	push	acc
   0872 74 80              1862 	mov	a,#0x80
   0874 C0 E0              1863 	push	acc
   0876 12s00r00           1864 	lcall	_printf
   0879 E5 81              1865 	mov	a,sp
   087B 24 FB              1866 	add	a,#0xfb
   087D F5 81              1867 	mov	sp,a
   087F D0 02              1868 	pop	ar2
                           1869 ;	led_ctrl.c:639: for( row = 1; row <= nrows; row += 8 ) {
   0881 7B 01              1870 	mov	r3,#0x01
   0883                    1871 00103$:
   0883 C3                 1872 	clr	c
   0884 E5*00              1873 	mov	a,_nrows
   0886 9B                 1874 	subb	a,r3
   0887 40 32              1875 	jc	00106$
                           1876 ;	led_ctrl.c:640: printf ( "%02x ", led_data8( row, col ) );
   0889 8A*00              1877 	mov	_led_data8_PARM_2,r2
   088B 8B 82              1878 	mov	dpl,r3
   088D C0 02              1879 	push	ar2
   088F C0 03              1880 	push	ar3
   0891 12s00r00           1881 	lcall	_led_data8
   0894 AC 82              1882 	mov	r4,dpl
   0896 7D 00              1883 	mov	r5,#0x00
   0898 C0 04              1884 	push	ar4
   089A C0 05              1885 	push	ar5
   089C 74r35              1886 	mov	a,#__str_17
   089E C0 E0              1887 	push	acc
   08A0 74s03              1888 	mov	a,#(__str_17 >> 8)
   08A2 C0 E0              1889 	push	acc
   08A4 74 80              1890 	mov	a,#0x80
   08A6 C0 E0              1891 	push	acc
   08A8 12s00r00           1892 	lcall	_printf
   08AB E5 81              1893 	mov	a,sp
   08AD 24 FB              1894 	add	a,#0xfb
   08AF F5 81              1895 	mov	sp,a
   08B1 D0 03              1896 	pop	ar3
   08B3 D0 02              1897 	pop	ar2
                           1898 ;	led_ctrl.c:639: for( row = 1; row <= nrows; row += 8 ) {
   08B5 74 08              1899 	mov	a,#0x08
   08B7 2B                 1900 	add	a,r3
   08B8 FB                 1901 	mov	r3,a
   08B9 80 C8              1902 	sjmp	00103$
   08BB                    1903 00106$:
                           1904 ;	led_ctrl.c:642: col++;
   08BB 0A                 1905 	inc	r2
                           1906 ;	led_ctrl.c:643: printf( "  %04d: ", col );
   08BC 8A 03              1907 	mov	ar3,r2
   08BE 7C 00              1908 	mov	r4,#0x00
   08C0 C0 02              1909 	push	ar2
   08C2 C0 03              1910 	push	ar3
   08C4 C0 04              1911 	push	ar4
   08C6 74r3B              1912 	mov	a,#__str_18
   08C8 C0 E0              1913 	push	acc
   08CA 74s03              1914 	mov	a,#(__str_18 >> 8)
   08CC C0 E0              1915 	push	acc
   08CE 74 80              1916 	mov	a,#0x80
   08D0 C0 E0              1917 	push	acc
   08D2 12s00r00           1918 	lcall	_printf
   08D5 E5 81              1919 	mov	a,sp
   08D7 24 FB              1920 	add	a,#0xfb
   08D9 F5 81              1921 	mov	sp,a
   08DB D0 02              1922 	pop	ar2
                           1923 ;	led_ctrl.c:644: for( row = 1; row <= nrows; row += 8 ) {
   08DD 7B 01              1924 	mov	r3,#0x01
   08DF                    1925 00107$:
   08DF C3                 1926 	clr	c
   08E0 E5*00              1927 	mov	a,_nrows
   08E2 9B                 1928 	subb	a,r3
   08E3 40 32              1929 	jc	00113$
                           1930 ;	led_ctrl.c:645: printf ( "%02x ", led_data8( row, col ) );
   08E5 8A*00              1931 	mov	_led_data8_PARM_2,r2
   08E7 8B 82              1932 	mov	dpl,r3
   08E9 C0 02              1933 	push	ar2
   08EB C0 03              1934 	push	ar3
   08ED 12s00r00           1935 	lcall	_led_data8
   08F0 AC 82              1936 	mov	r4,dpl
   08F2 7D 00              1937 	mov	r5,#0x00
   08F4 C0 04              1938 	push	ar4
   08F6 C0 05              1939 	push	ar5
   08F8 74r35              1940 	mov	a,#__str_17
   08FA C0 E0              1941 	push	acc
   08FC 74s03              1942 	mov	a,#(__str_17 >> 8)
   08FE C0 E0              1943 	push	acc
   0900 74 80              1944 	mov	a,#0x80
   0902 C0 E0              1945 	push	acc
   0904 12s00r00           1946 	lcall	_printf
   0907 E5 81              1947 	mov	a,sp
   0909 24 FB              1948 	add	a,#0xfb
   090B F5 81              1949 	mov	sp,a
   090D D0 03              1950 	pop	ar3
   090F D0 02              1951 	pop	ar2
                           1952 ;	led_ctrl.c:644: for( row = 1; row <= nrows; row += 8 ) {
   0911 74 08              1953 	mov	a,#0x08
   0913 2B                 1954 	add	a,r3
   0914 FB                 1955 	mov	r3,a
   0915 80 C8              1956 	sjmp	00107$
   0917                    1957 00113$:
                           1958 ;	led_ctrl.c:634: for( col = 1; col <= ncols; col++ ) {
   0917 0A                 1959 	inc	r2
   0918 02s08r45           1960 	ljmp	00111$
   091B                    1961 00114$:
                           1962 ;	led_ctrl.c:648: printf( "\n" );
   091B 74r44              1963 	mov	a,#__str_19
   091D C0 E0              1964 	push	acc
   091F 74s03              1965 	mov	a,#(__str_19 >> 8)
   0921 C0 E0              1966 	push	acc
   0923 74 80              1967 	mov	a,#0x80
   0925 C0 E0              1968 	push	acc
   0927 12s00r00           1969 	lcall	_printf
   092A 15 81              1970 	dec	sp
   092C 15 81              1971 	dec	sp
   092E 15 81              1972 	dec	sp
                           1973 ;	led_ctrl.c:649: puts( "OK" );
   0930 90s02rE4           1974 	mov	dptr,#__str_12
   0933 75 F0 80           1975 	mov	b,#0x80
   0936 02s00r00           1976 	ljmp	_puts
                           1977 ;------------------------------------------------------------
                           1978 ;Allocation info for local variables in function 'led_selftest'
                           1979 ;------------------------------------------------------------
                           1980 ;panel                     Allocated with name '_led_selftest_PARM_2'
                           1981 ;k                         Allocated with name '_led_selftest_PARM_3'
                           1982 ;testnumber                Allocated to registers r2 
                           1983 ;------------------------------------------------------------
                           1984 ;	led_ctrl.c:678: void  led_selftest( u_int8 testnumber, u_int8 panel, u_int8 k )
                           1985 ;	-----------------------------------------
                           1986 ;	 function led_selftest
                           1987 ;	-----------------------------------------
   0939                    1988 _led_selftest:
   0939 AA 82              1989 	mov	r2,dpl
                           1990 ;	led_ctrl.c:715: puts( "OK" );
   093B C3                 1991 	clr	c
   093C 74 08              1992 	mov	a,#0x08
   093E 9A                 1993 	subb	a,r2
   093F E4                 1994 	clr	a
   0940 33                 1995 	rlc	a
   0941 FB                 1996 	mov	r3,a
   0942 AC*2D              1997 	mov	r4,_led_selftest_PARM_3
   0944                    1998 00112$:
                           1999 ;	led_ctrl.c:680: for ( ; k; k-- ) {
   0944 EC                 2000 	mov	a,r4
   0945 70 03              2001 	jnz	00122$
   0947 02s0Ar44           2002 	ljmp	00115$
   094A                    2003 00122$:
                           2004 ;	led_ctrl.c:681: switch ( testnumber ) {
   094A EB                 2005 	mov	a,r3
   094B 60 03              2006 	jz	00123$
   094D 02s0Ar2B           2007 	ljmp	00110$
   0950                    2008 00123$:
   0950 EA                 2009 	mov	a,r2
   0951 2A                 2010 	add	a,r2
   0952 2A                 2011 	add	a,r2
   0953 90s09r57           2012 	mov	dptr,#00124$
   0956 73                 2013 	jmp	@a+dptr
   0957                    2014 00124$:
   0957 02s0Ar2B           2015 	ljmp	00110$
   095A 02s09r72           2016 	ljmp	00101$
   095D 02s09r87           2017 	ljmp	00102$
   0960 02s09r9E           2018 	ljmp	00103$
   0963 02s09rB5           2019 	ljmp	00104$
   0966 02s09rC9           2020 	ljmp	00105$
   0969 02s09rDD           2021 	ljmp	00106$
   096C 02s09rF1           2022 	ljmp	00107$
   096F 02s0Ar05           2023 	ljmp	00108$
                           2024 ;	led_ctrl.c:682: case 1:
   0972                    2025 00101$:
                           2026 ;	led_ctrl.c:683: led_selftest_corners( panel);
   0972 85*2C 82           2027 	mov	dpl,_led_selftest_PARM_2
   0975 C0 02              2028 	push	ar2
   0977 C0 03              2029 	push	ar3
   0979 C0 04              2030 	push	ar4
   097B 12s0Ar4D           2031 	lcall	_led_selftest_corners
   097E D0 04              2032 	pop	ar4
   0980 D0 03              2033 	pop	ar3
   0982 D0 02              2034 	pop	ar2
                           2035 ;	led_ctrl.c:684: break;
   0984 02s0Ar40           2036 	ljmp	00114$
                           2037 ;	led_ctrl.c:685: case 2:
   0987                    2038 00102$:
                           2039 ;	led_ctrl.c:686: led_selftest_all_on( 1, panel);
   0987 D2*01              2040 	setb	_led_selftest_all_on_PARM_1
   0989 85*2C 82           2041 	mov	dpl,_led_selftest_PARM_2
   098C C0 02              2042 	push	ar2
   098E C0 03              2043 	push	ar3
   0990 C0 04              2044 	push	ar4
   0992 12s0ArFD           2045 	lcall	_led_selftest_all_on
   0995 D0 04              2046 	pop	ar4
   0997 D0 03              2047 	pop	ar3
   0999 D0 02              2048 	pop	ar2
                           2049 ;	led_ctrl.c:687: break;
   099B 02s0Ar40           2050 	ljmp	00114$
                           2051 ;	led_ctrl.c:688: case 3:
   099E                    2052 00103$:
                           2053 ;	led_ctrl.c:689: led_selftest_all_on( 0, panel);
   099E C2*01              2054 	clr	_led_selftest_all_on_PARM_1
   09A0 85*2C 82           2055 	mov	dpl,_led_selftest_PARM_2
   09A3 C0 02              2056 	push	ar2
   09A5 C0 03              2057 	push	ar3
   09A7 C0 04              2058 	push	ar4
   09A9 12s0ArFD           2059 	lcall	_led_selftest_all_on
   09AC D0 04              2060 	pop	ar4
   09AE D0 03              2061 	pop	ar3
   09B0 D0 02              2062 	pop	ar2
                           2063 ;	led_ctrl.c:690: break;
   09B2 02s0Ar40           2064 	ljmp	00114$
                           2065 ;	led_ctrl.c:691: case 4:
   09B5                    2066 00104$:
                           2067 ;	led_ctrl.c:692: led_selftest_flashes( panel );
   09B5 85*2C 82           2068 	mov	dpl,_led_selftest_PARM_2
   09B8 C0 02              2069 	push	ar2
   09BA C0 03              2070 	push	ar3
   09BC C0 04              2071 	push	ar4
   09BE 12s0Br8D           2072 	lcall	_led_selftest_flashes
   09C1 D0 04              2073 	pop	ar4
   09C3 D0 03              2074 	pop	ar3
   09C5 D0 02              2075 	pop	ar2
                           2076 ;	led_ctrl.c:693: break;
                           2077 ;	led_ctrl.c:694: case 5:
   09C7 80 77              2078 	sjmp	00114$
   09C9                    2079 00105$:
                           2080 ;	led_ctrl.c:695: led_selftest_marching_row( panel );
   09C9 85*2C 82           2081 	mov	dpl,_led_selftest_PARM_2
   09CC C0 02              2082 	push	ar2
   09CE C0 03              2083 	push	ar3
   09D0 C0 04              2084 	push	ar4
   09D2 12s0BrCE           2085 	lcall	_led_selftest_marching_row
   09D5 D0 04              2086 	pop	ar4
   09D7 D0 03              2087 	pop	ar3
   09D9 D0 02              2088 	pop	ar2
                           2089 ;	led_ctrl.c:696: break;
                           2090 ;	led_ctrl.c:697: case 6:
   09DB 80 63              2091 	sjmp	00114$
   09DD                    2092 00106$:
                           2093 ;	led_ctrl.c:698: led_selftest_marching_col( panel );
   09DD 85*2C 82           2094 	mov	dpl,_led_selftest_PARM_2
   09E0 C0 02              2095 	push	ar2
   09E2 C0 03              2096 	push	ar3
   09E4 C0 04              2097 	push	ar4
   09E6 12s0Dr2F           2098 	lcall	_led_selftest_marching_col
   09E9 D0 04              2099 	pop	ar4
   09EB D0 03              2100 	pop	ar3
   09ED D0 02              2101 	pop	ar2
                           2102 ;	led_ctrl.c:699: break;
                           2103 ;	led_ctrl.c:700: case 7:
   09EF 80 4F              2104 	sjmp	00114$
   09F1                    2105 00107$:
                           2106 ;	led_ctrl.c:701: led_selftest_cylon( panel);
   09F1 85*2C 82           2107 	mov	dpl,_led_selftest_PARM_2
   09F4 C0 02              2108 	push	ar2
   09F6 C0 03              2109 	push	ar3
   09F8 C0 04              2110 	push	ar4
   09FA 12s0Er90           2111 	lcall	_led_selftest_cylon
   09FD D0 04              2112 	pop	ar4
   09FF D0 03              2113 	pop	ar3
   0A01 D0 02              2114 	pop	ar2
                           2115 ;	led_ctrl.c:702: break;
                           2116 ;	led_ctrl.c:703: case 8:
   0A03 80 3B              2117 	sjmp	00114$
   0A05                    2118 00108$:
                           2119 ;	led_ctrl.c:704: led_selftest_corners( panel);
   0A05 85*2C 82           2120 	mov	dpl,_led_selftest_PARM_2
   0A08 C0 02              2121 	push	ar2
   0A0A C0 03              2122 	push	ar3
   0A0C C0 04              2123 	push	ar4
   0A0E 12s0Ar4D           2124 	lcall	_led_selftest_corners
                           2125 ;	led_ctrl.c:705: led_selftest_marching_row( panel );
   0A11 85*2C 82           2126 	mov	dpl,_led_selftest_PARM_2
   0A14 12s0BrCE           2127 	lcall	_led_selftest_marching_row
                           2128 ;	led_ctrl.c:706: led_selftest_marching_col( panel );
   0A17 85*2C 82           2129 	mov	dpl,_led_selftest_PARM_2
   0A1A 12s0Dr2F           2130 	lcall	_led_selftest_marching_col
                           2131 ;	led_ctrl.c:707: led_selftest_cylon( panel);
   0A1D 85*2C 82           2132 	mov	dpl,_led_selftest_PARM_2
   0A20 12s0Er90           2133 	lcall	_led_selftest_cylon
   0A23 D0 04              2134 	pop	ar4
   0A25 D0 03              2135 	pop	ar3
   0A27 D0 02              2136 	pop	ar2
                           2137 ;	led_ctrl.c:708: break;
                           2138 ;	led_ctrl.c:710: case 0:
   0A29 80 15              2139 	sjmp	00114$
   0A2B                    2140 00110$:
                           2141 ;	led_ctrl.c:711: puts("eh?");
   0A2B 90s02r77           2142 	mov	dptr,#__str_2
   0A2E 75 F0 80           2143 	mov	b,#0x80
   0A31 C0 02              2144 	push	ar2
   0A33 C0 03              2145 	push	ar3
   0A35 C0 04              2146 	push	ar4
   0A37 12s00r00           2147 	lcall	_puts
   0A3A D0 04              2148 	pop	ar4
   0A3C D0 03              2149 	pop	ar3
   0A3E D0 02              2150 	pop	ar2
                           2151 ;	led_ctrl.c:713: }
   0A40                    2152 00114$:
                           2153 ;	led_ctrl.c:680: for ( ; k; k-- ) {
   0A40 1C                 2154 	dec	r4
   0A41 02s09r44           2155 	ljmp	00112$
   0A44                    2156 00115$:
                           2157 ;	led_ctrl.c:715: puts( "OK" );
   0A44 90s02rE4           2158 	mov	dptr,#__str_12
   0A47 75 F0 80           2159 	mov	b,#0x80
   0A4A 02s00r00           2160 	ljmp	_puts
                           2161 ;------------------------------------------------------------
                           2162 ;Allocation info for local variables in function 'led_selftest_corners'
                           2163 ;------------------------------------------------------------
                           2164 ;panel                     Allocated to registers r2 
                           2165 ;------------------------------------------------------------
                           2166 ;	led_ctrl.c:722: void  led_selftest_corners( u_int8 panel )
                           2167 ;	-----------------------------------------
                           2168 ;	 function led_selftest_corners
                           2169 ;	-----------------------------------------
   0A4D                    2170 _led_selftest_corners:
   0A4D AA 82              2171 	mov	r2,dpl
                           2172 ;	led_ctrl.c:724: printf( "selftest 1 - corners LEDs on,  panel %d\n", panel );
   0A4F 8A 03              2173 	mov	ar3,r2
   0A51 7C 00              2174 	mov	r4,#0x00
   0A53 C0 02              2175 	push	ar2
   0A55 C0 03              2176 	push	ar3
   0A57 C0 04              2177 	push	ar4
   0A59 74r46              2178 	mov	a,#__str_20
   0A5B C0 E0              2179 	push	acc
   0A5D 74s03              2180 	mov	a,#(__str_20 >> 8)
   0A5F C0 E0              2181 	push	acc
   0A61 74 80              2182 	mov	a,#0x80
   0A63 C0 E0              2183 	push	acc
   0A65 12s00r00           2184 	lcall	_printf
   0A68 E5 81              2185 	mov	a,sp
   0A6A 24 FB              2186 	add	a,#0xfb
   0A6C F5 81              2187 	mov	sp,a
                           2188 ;	led_ctrl.c:725: led_datarefresh( 0 );
   0A6E 90 00 00           2189 	mov	dptr,#0x0000
   0A71 12s00r00           2190 	lcall	_led_datarefresh
   0A74 D0 02              2191 	pop	ar2
                           2192 ;	led_ctrl.c:726: if ( panel == 0 ) {
   0A76 EA                 2193 	mov	a,r2
   0A77 70 2E              2194 	jnz	00102$
                           2195 ;	led_ctrl.c:728: led_store1( 1, 1, 1 );
   0A79 D2*00              2196 	setb	_led_store1_PARM_1
   0A7B 75*00 01           2197 	mov	_led_store1_PARM_3,#0x01
   0A7E 75 82 01           2198 	mov	dpl,#0x01
   0A81 12s00r00           2199 	lcall	_led_store1
                           2200 ;	led_ctrl.c:729: led_store1( 1, nrows, 1 );
   0A84 D2*00              2201 	setb	_led_store1_PARM_1
   0A86 75*00 01           2202 	mov	_led_store1_PARM_3,#0x01
   0A89 85*00 82           2203 	mov	dpl,_nrows
   0A8C 12s00r00           2204 	lcall	_led_store1
                           2205 ;	led_ctrl.c:730: led_store1( 1, 1, ncols );
   0A8F D2*00              2206 	setb	_led_store1_PARM_1
   0A91 85*02*00           2207 	mov	_led_store1_PARM_3,_ncols
   0A94 75 82 01           2208 	mov	dpl,#0x01
   0A97 12s00r00           2209 	lcall	_led_store1
                           2210 ;	led_ctrl.c:731: led_store1( 1, nrows, nrows );
   0A9A D2*00              2211 	setb	_led_store1_PARM_1
   0A9C 85*00*00           2212 	mov	_led_store1_PARM_3,_nrows
   0A9F 85*00 82           2213 	mov	dpl,_nrows
   0AA2 12s00r00           2214 	lcall	_led_store1
   0AA5 80 50              2215 	sjmp	00103$
   0AA7                    2216 00102$:
                           2217 ;	led_ctrl.c:734: led_store_in_panel( 1, panel, 1, 1 );
   0AA7 D2*00              2218 	setb	_led_store_in_panel_PARM_1
   0AA9 75*00 01           2219 	mov	_led_store_in_panel_PARM_3,#0x01
   0AAC 75*00 01           2220 	mov	_led_store_in_panel_PARM_4,#0x01
   0AAF 8A 82              2221 	mov	dpl,r2
   0AB1 C0 02              2222 	push	ar2
   0AB3 12s00r00           2223 	lcall	_led_store_in_panel
   0AB6 D0 02              2224 	pop	ar2
                           2225 ;	led_ctrl.c:735: led_store_in_panel( 1, panel, nrows_perpanel[panel], 1 );
   0AB8 EA                 2226 	mov	a,r2
   0AB9 90s00r00           2227 	mov	dptr,#_nrows_perpanel
   0ABC 93                 2228 	movc	a,@a+dptr
   0ABD F5*00              2229 	mov	_led_store_in_panel_PARM_3,a
   0ABF D2*00              2230 	setb	_led_store_in_panel_PARM_1
   0AC1 75*00 01           2231 	mov	_led_store_in_panel_PARM_4,#0x01
   0AC4 8A 82              2232 	mov	dpl,r2
   0AC6 C0 02              2233 	push	ar2
   0AC8 12s00r00           2234 	lcall	_led_store_in_panel
   0ACB D0 02              2235 	pop	ar2
                           2236 ;	led_ctrl.c:736: led_store_in_panel( 1, panel, 1,  ncols_perpanel[panel] );
   0ACD EA                 2237 	mov	a,r2
   0ACE 90s00r00           2238 	mov	dptr,#_ncols_perpanel
   0AD1 93                 2239 	movc	a,@a+dptr
   0AD2 F5*00              2240 	mov	_led_store_in_panel_PARM_4,a
   0AD4 D2*00              2241 	setb	_led_store_in_panel_PARM_1
   0AD6 75*00 01           2242 	mov	_led_store_in_panel_PARM_3,#0x01
   0AD9 8A 82              2243 	mov	dpl,r2
   0ADB C0 02              2244 	push	ar2
   0ADD 12s00r00           2245 	lcall	_led_store_in_panel
   0AE0 D0 02              2246 	pop	ar2
                           2247 ;	led_ctrl.c:737: led_store_in_panel( 1, panel, nrows_perpanel[panel], ncols_perpanel[panel] );
   0AE2 EA                 2248 	mov	a,r2
   0AE3 90s00r00           2249 	mov	dptr,#_nrows_perpanel
   0AE6 93                 2250 	movc	a,@a+dptr
   0AE7 F5*00              2251 	mov	_led_store_in_panel_PARM_3,a
   0AE9 EA                 2252 	mov	a,r2
   0AEA 90s00r00           2253 	mov	dptr,#_ncols_perpanel
   0AED 93                 2254 	movc	a,@a+dptr
   0AEE F5*00              2255 	mov	_led_store_in_panel_PARM_4,a
   0AF0 D2*00              2256 	setb	_led_store_in_panel_PARM_1
   0AF2 8A 82              2257 	mov	dpl,r2
   0AF4 12s00r00           2258 	lcall	_led_store_in_panel
   0AF7                    2259 00103$:
                           2260 ;	led_ctrl.c:739: led_datarefresh( 0 );
   0AF7 90 00 00           2261 	mov	dptr,#0x0000
   0AFA 02s00r00           2262 	ljmp	_led_datarefresh
                           2263 ;------------------------------------------------------------
                           2264 ;Allocation info for local variables in function 'led_selftest_all_on'
                           2265 ;------------------------------------------------------------
                           2266 ;panel                     Allocated to registers r2 
                           2267 ;row                       Allocated to registers r4 
                           2268 ;col                       Allocated to registers r3 
                           2269 ;------------------------------------------------------------
                           2270 ;	led_ctrl.c:746: void  led_selftest_all_on( BIT pixelbit, u_int8 panel )
                           2271 ;	-----------------------------------------
                           2272 ;	 function led_selftest_all_on
                           2273 ;	-----------------------------------------
   0AFD                    2274 _led_selftest_all_on:
                           2275 ;	led_ctrl.c:752: if ( panel == 0 ) {
   0AFD E5 82              2276 	mov	a,dpl
   0AFF FA                 2277 	mov	r2,a
   0B00 70 2C              2278 	jnz	00130$
                           2279 ;	led_ctrl.c:753: for ( col = 1; col <= ncols; col++ ) {
   0B02 7B 01              2280 	mov	r3,#0x01
   0B04                    2281 00108$:
   0B04 C3                 2282 	clr	c
   0B05 E5*02              2283 	mov	a,_ncols
   0B07 9B                 2284 	subb	a,r3
   0B08 50 03              2285 	jnc	00136$
   0B0A 02s0Br87           2286 	ljmp	00103$
   0B0D                    2287 00136$:
                           2288 ;	led_ctrl.c:754: for ( row = 1; row <= nrows; row++ ) {
   0B0D 7C 01              2289 	mov	r4,#0x01
   0B0F                    2290 00104$:
   0B0F C3                 2291 	clr	c
   0B10 E5*00              2292 	mov	a,_nrows
   0B12 9C                 2293 	subb	a,r4
   0B13 40 16              2294 	jc	00110$
                           2295 ;	led_ctrl.c:755: led_store1( pixelbit, row, col );
   0B15 A2*01              2296 	mov	c,_led_selftest_all_on_PARM_1
   0B17 92*00              2297 	mov	_led_store1_PARM_1,c
   0B19 8B*00              2298 	mov	_led_store1_PARM_3,r3
   0B1B 8C 82              2299 	mov	dpl,r4
   0B1D C0 03              2300 	push	ar3
   0B1F C0 04              2301 	push	ar4
   0B21 12s00r00           2302 	lcall	_led_store1
   0B24 D0 04              2303 	pop	ar4
   0B26 D0 03              2304 	pop	ar3
                           2305 ;	led_ctrl.c:754: for ( row = 1; row <= nrows; row++ ) {
   0B28 0C                 2306 	inc	r4
   0B29 80 E4              2307 	sjmp	00104$
   0B2B                    2308 00110$:
                           2309 ;	led_ctrl.c:753: for ( col = 1; col <= ncols; col++ ) {
   0B2B 0B                 2310 	inc	r3
                           2311 ;	led_ctrl.c:759: for ( col = 1; col <= ncols_perpanel[panel]; col++ ) {
   0B2C 80 D6              2312 	sjmp	00108$
   0B2E                    2313 00130$:
   0B2E EA                 2314 	mov	a,r2
   0B2F 24r00              2315 	add	a,#_nrows_perpanel
   0B31 FB                 2316 	mov	r3,a
   0B32 E4                 2317 	clr	a
   0B33 34s00              2318 	addc	a,#(_nrows_perpanel >> 8)
   0B35 FC                 2319 	mov	r4,a
   0B36 EA                 2320 	mov	a,r2
   0B37 24r00              2321 	add	a,#_ncols_perpanel
   0B39 FD                 2322 	mov	r5,a
   0B3A E4                 2323 	clr	a
   0B3B 34s00              2324 	addc	a,#(_ncols_perpanel >> 8)
   0B3D FE                 2325 	mov	r6,a
   0B3E 7F 01              2326 	mov	r7,#0x01
   0B40                    2327 00116$:
   0B40 8D 82              2328 	mov	dpl,r5
   0B42 8E 83              2329 	mov	dph,r6
   0B44 E4                 2330 	clr	a
   0B45 93                 2331 	movc	a,@a+dptr
   0B46 F8                 2332 	mov	r0,a
   0B47 C3                 2333 	clr	c
   0B48 9F                 2334 	subb	a,r7
   0B49 40 3C              2335 	jc	00103$
                           2336 ;	led_ctrl.c:760: for ( row = 1; row <= nrows_perpanel[panel]; row++ ) {
   0B4B 78 01              2337 	mov	r0,#0x01
   0B4D                    2338 00112$:
   0B4D 8B 82              2339 	mov	dpl,r3
   0B4F 8C 83              2340 	mov	dph,r4
   0B51 E4                 2341 	clr	a
   0B52 93                 2342 	movc	a,@a+dptr
   0B53 F9                 2343 	mov	r1,a
   0B54 C3                 2344 	clr	c
   0B55 98                 2345 	subb	a,r0
   0B56 40 2C              2346 	jc	00118$
                           2347 ;	led_ctrl.c:761: led_store_in_panel( pixelbit, panel, row, col );
   0B58 A2*01              2348 	mov	c,_led_selftest_all_on_PARM_1
   0B5A 92*00              2349 	mov	_led_store_in_panel_PARM_1,c
   0B5C 88*00              2350 	mov	_led_store_in_panel_PARM_3,r0
   0B5E 8F*00              2351 	mov	_led_store_in_panel_PARM_4,r7
   0B60 8A 82              2352 	mov	dpl,r2
   0B62 C0 02              2353 	push	ar2
   0B64 C0 03              2354 	push	ar3
   0B66 C0 04              2355 	push	ar4
   0B68 C0 05              2356 	push	ar5
   0B6A C0 06              2357 	push	ar6
   0B6C C0 07              2358 	push	ar7
   0B6E C0 00              2359 	push	ar0
   0B70 12s00r00           2360 	lcall	_led_store_in_panel
   0B73 D0 00              2361 	pop	ar0
   0B75 D0 07              2362 	pop	ar7
   0B77 D0 06              2363 	pop	ar6
   0B79 D0 05              2364 	pop	ar5
   0B7B D0 04              2365 	pop	ar4
   0B7D D0 03              2366 	pop	ar3
   0B7F D0 02              2367 	pop	ar2
                           2368 ;	led_ctrl.c:760: for ( row = 1; row <= nrows_perpanel[panel]; row++ ) {
   0B81 08                 2369 	inc	r0
   0B82 80 C9              2370 	sjmp	00112$
   0B84                    2371 00118$:
                           2372 ;	led_ctrl.c:759: for ( col = 1; col <= ncols_perpanel[panel]; col++ ) {
   0B84 0F                 2373 	inc	r7
   0B85 80 B9              2374 	sjmp	00116$
   0B87                    2375 00103$:
                           2376 ;	led_ctrl.c:765: led_datarefresh( 0 );
   0B87 90 00 00           2377 	mov	dptr,#0x0000
   0B8A 02s00r00           2378 	ljmp	_led_datarefresh
                           2379 ;------------------------------------------------------------
                           2380 ;Allocation info for local variables in function 'led_selftest_flashes'
                           2381 ;------------------------------------------------------------
                           2382 ;panel                     Allocated to registers r2 
                           2383 ;------------------------------------------------------------
                           2384 ;	led_ctrl.c:772: void  led_selftest_flashes( u_int8 panel )
                           2385 ;	-----------------------------------------
                           2386 ;	 function led_selftest_flashes
                           2387 ;	-----------------------------------------
   0B8D                    2388 _led_selftest_flashes:
   0B8D AA 82              2389 	mov	r2,dpl
                           2390 ;	led_ctrl.c:774: printf( "selftest 4 - all pixels ON then OFF, panel %d\n", panel );
   0B8F 8A 03              2391 	mov	ar3,r2
   0B91 7C 00              2392 	mov	r4,#0x00
   0B93 C0 02              2393 	push	ar2
   0B95 C0 03              2394 	push	ar3
   0B97 C0 04              2395 	push	ar4
   0B99 74r6F              2396 	mov	a,#__str_21
   0B9B C0 E0              2397 	push	acc
   0B9D 74s03              2398 	mov	a,#(__str_21 >> 8)
   0B9F C0 E0              2399 	push	acc
   0BA1 74 80              2400 	mov	a,#0x80
   0BA3 C0 E0              2401 	push	acc
   0BA5 12s00r00           2402 	lcall	_printf
   0BA8 E5 81              2403 	mov	a,sp
   0BAA 24 FB              2404 	add	a,#0xfb
   0BAC F5 81              2405 	mov	sp,a
   0BAE D0 02              2406 	pop	ar2
                           2407 ;	led_ctrl.c:776: led_selftest_all_on( 1, panel );
   0BB0 D2*01              2408 	setb	_led_selftest_all_on_PARM_1
   0BB2 8A 82              2409 	mov	dpl,r2
   0BB4 C0 02              2410 	push	ar2
   0BB6 12s0ArFD           2411 	lcall	_led_selftest_all_on
                           2412 ;	led_ctrl.c:777: SLEEP_1SEC;
   0BB9 90 03 E8           2413 	mov	dptr,#0x03E8
   0BBC 12s00r00           2414 	lcall	_sleep_ms
   0BBF D0 02              2415 	pop	ar2
                           2416 ;	led_ctrl.c:779: led_selftest_all_on( 0, panel );
   0BC1 C2*01              2417 	clr	_led_selftest_all_on_PARM_1
   0BC3 8A 82              2418 	mov	dpl,r2
   0BC5 12s0ArFD           2419 	lcall	_led_selftest_all_on
                           2420 ;	led_ctrl.c:780: SLEEP_1SEC;
   0BC8 90 03 E8           2421 	mov	dptr,#0x03E8
   0BCB 02s00r00           2422 	ljmp	_sleep_ms
                           2423 ;------------------------------------------------------------
                           2424 ;Allocation info for local variables in function 'led_selftest_marching_row'
                           2425 ;------------------------------------------------------------
                           2426 ;panel                     Allocated with name '_led_selftest_marching_row_panel_1_1'
                           2427 ;row                       Allocated with name '_led_selftest_marching_row_row_1_1'
                           2428 ;col                       Allocated to registers r4 
                           2429 ;------------------------------------------------------------
                           2430 ;	led_ctrl.c:787: void  led_selftest_marching_row( u_int8 panel )
                           2431 ;	-----------------------------------------
                           2432 ;	 function led_selftest_marching_row
                           2433 ;	-----------------------------------------
   0BCE                    2434 _led_selftest_marching_row:
   0BCE 85 82*2E           2435 	mov	_led_selftest_marching_row_panel_1_1,dpl
                           2436 ;	led_ctrl.c:791: printf( "selftest 5 - marching row pattern, panel %d\n", panel );
   0BD1 AB*2E              2437 	mov	r3,_led_selftest_marching_row_panel_1_1
   0BD3 7C 00              2438 	mov	r4,#0x00
   0BD5 C0 03              2439 	push	ar3
   0BD7 C0 04              2440 	push	ar4
   0BD9 74r9E              2441 	mov	a,#__str_22
   0BDB C0 E0              2442 	push	acc
   0BDD 74s03              2443 	mov	a,#(__str_22 >> 8)
   0BDF C0 E0              2444 	push	acc
   0BE1 74 80              2445 	mov	a,#0x80
   0BE3 C0 E0              2446 	push	acc
   0BE5 12s00r00           2447 	lcall	_printf
   0BE8 E5 81              2448 	mov	a,sp
   0BEA 24 FB              2449 	add	a,#0xfb
   0BEC F5 81              2450 	mov	sp,a
                           2451 ;	led_ctrl.c:793: if ( panel == 0 ) {
   0BEE E5*2E              2452 	mov	a,_led_selftest_marching_row_panel_1_1
   0BF0 70 5E              2453 	jnz	00142$
                           2454 ;	led_ctrl.c:794: for ( row = 1; row <= nrows; row++ ) {
   0BF2 7B 01              2455 	mov	r3,#0x01
   0BF4                    2456 00112$:
   0BF4 C3                 2457 	clr	c
   0BF5 E5*00              2458 	mov	a,_nrows
   0BF7 9B                 2459 	subb	a,r3
   0BF8 50 01              2460 	jnc	00150$
   0BFA 22                 2461 	ret
   0BFB                    2462 00150$:
                           2463 ;	led_ctrl.c:795: for ( col = 1; col <= ncols; col++ ) {
   0BFB 7C 01              2464 	mov	r4,#0x01
   0BFD                    2465 00104$:
   0BFD C3                 2466 	clr	c
   0BFE E5*02              2467 	mov	a,_ncols
   0C00 9C                 2468 	subb	a,r4
   0C01 40 14              2469 	jc	00107$
                           2470 ;	led_ctrl.c:796: led_store1( 1, row, col );
   0C03 D2*00              2471 	setb	_led_store1_PARM_1
   0C05 8C*00              2472 	mov	_led_store1_PARM_3,r4
   0C07 8B 82              2473 	mov	dpl,r3
   0C09 C0 03              2474 	push	ar3
   0C0B C0 04              2475 	push	ar4
   0C0D 12s00r00           2476 	lcall	_led_store1
   0C10 D0 04              2477 	pop	ar4
   0C12 D0 03              2478 	pop	ar3
                           2479 ;	led_ctrl.c:795: for ( col = 1; col <= ncols; col++ ) {
   0C14 0C                 2480 	inc	r4
   0C15 80 E6              2481 	sjmp	00104$
   0C17                    2482 00107$:
                           2483 ;	led_ctrl.c:798: led_datarefresh( 0 );
   0C17 90 00 00           2484 	mov	dptr,#0x0000
   0C1A C0 03              2485 	push	ar3
   0C1C 12s00r00           2486 	lcall	_led_datarefresh
                           2487 ;	led_ctrl.c:799: sleep_ms( 100 );            // 250 ms
   0C1F 90 00 64           2488 	mov	dptr,#0x0064
   0C22 12s00r00           2489 	lcall	_sleep_ms
   0C25 D0 03              2490 	pop	ar3
                           2491 ;	led_ctrl.c:801: for ( col = 1; col <= ncols; col++ ) {
   0C27 7C 01              2492 	mov	r4,#0x01
   0C29                    2493 00108$:
   0C29 C3                 2494 	clr	c
   0C2A E5*02              2495 	mov	a,_ncols
   0C2C 9C                 2496 	subb	a,r4
   0C2D 40 14              2497 	jc	00111$
                           2498 ;	led_ctrl.c:802: led_store1( 0, row, col );
   0C2F C2*00              2499 	clr	_led_store1_PARM_1
   0C31 8C*00              2500 	mov	_led_store1_PARM_3,r4
   0C33 8B 82              2501 	mov	dpl,r3
   0C35 C0 03              2502 	push	ar3
   0C37 C0 04              2503 	push	ar4
   0C39 12s00r00           2504 	lcall	_led_store1
   0C3C D0 04              2505 	pop	ar4
   0C3E D0 03              2506 	pop	ar3
                           2507 ;	led_ctrl.c:801: for ( col = 1; col <= ncols; col++ ) {
   0C40 0C                 2508 	inc	r4
   0C41 80 E6              2509 	sjmp	00108$
   0C43                    2510 00111$:
                           2511 ;	led_ctrl.c:804: led_datarefresh( 0 );
   0C43 90 00 00           2512 	mov	dptr,#0x0000
   0C46 C0 03              2513 	push	ar3
   0C48 12s00r00           2514 	lcall	_led_datarefresh
   0C4B D0 03              2515 	pop	ar3
                           2516 ;	led_ctrl.c:794: for ( row = 1; row <= nrows; row++ ) {
   0C4D 0B                 2517 	inc	r3
                           2518 ;	led_ctrl.c:807: for ( row = 1; row <= nrows_perpanel[panel]; row++ ) {
   0C4E 80 A4              2519 	sjmp	00112$
   0C50                    2520 00142$:
   0C50 E5*2E              2521 	mov	a,_led_selftest_marching_row_panel_1_1
   0C52 24r00              2522 	add	a,#_ncols_perpanel
   0C54 FB                 2523 	mov	r3,a
   0C55 E4                 2524 	clr	a
   0C56 34s00              2525 	addc	a,#(_ncols_perpanel >> 8)
   0C58 FC                 2526 	mov	r4,a
   0C59 8B 05              2527 	mov	ar5,r3
   0C5B 8C 06              2528 	mov	ar6,r4
   0C5D E5*2E              2529 	mov	a,_led_selftest_marching_row_panel_1_1
   0C5F 24r00              2530 	add	a,#_nrows_perpanel
   0C61 FF                 2531 	mov	r7,a
   0C62 E4                 2532 	clr	a
   0C63 34s00              2533 	addc	a,#(_nrows_perpanel >> 8)
   0C65 F8                 2534 	mov	r0,a
   0C66 75*2F 01           2535 	mov	_led_selftest_marching_row_row_1_1,#0x01
   0C69                    2536 00124$:
   0C69 8F 82              2537 	mov	dpl,r7
   0C6B 88 83              2538 	mov	dph,r0
   0C6D E4                 2539 	clr	a
   0C6E 93                 2540 	movc	a,@a+dptr
   0C6F FA                 2541 	mov	r2,a
   0C70 C3                 2542 	clr	c
   0C71 95*2F              2543 	subb	a,_led_selftest_marching_row_row_1_1
   0C73 50 01              2544 	jnc	00153$
   0C75 22                 2545 	ret
   0C76                    2546 00153$:
                           2547 ;	led_ctrl.c:808: for ( col = 1; col <= ncols_perpanel[panel]; col++ ) {
   0C76 7A 01              2548 	mov	r2,#0x01
   0C78                    2549 00116$:
   0C78 8B 82              2550 	mov	dpl,r3
   0C7A 8C 83              2551 	mov	dph,r4
   0C7C E4                 2552 	clr	a
   0C7D 93                 2553 	movc	a,@a+dptr
   0C7E F9                 2554 	mov	r1,a
   0C7F C3                 2555 	clr	c
   0C80 9A                 2556 	subb	a,r2
   0C81 40 2C              2557 	jc	00119$
                           2558 ;	led_ctrl.c:809: led_store_in_panel( 1, panel, row, col );
   0C83 D2*00              2559 	setb	_led_store_in_panel_PARM_1
   0C85 85*2F*00           2560 	mov	_led_store_in_panel_PARM_3,_led_selftest_marching_row_row_1_1
   0C88 8A*00              2561 	mov	_led_store_in_panel_PARM_4,r2
   0C8A 85*2E 82           2562 	mov	dpl,_led_selftest_marching_row_panel_1_1
   0C8D C0 02              2563 	push	ar2
   0C8F C0 03              2564 	push	ar3
   0C91 C0 04              2565 	push	ar4
   0C93 C0 05              2566 	push	ar5
   0C95 C0 06              2567 	push	ar6
   0C97 C0 07              2568 	push	ar7
   0C99 C0 00              2569 	push	ar0
   0C9B 12s00r00           2570 	lcall	_led_store_in_panel
   0C9E D0 00              2571 	pop	ar0
   0CA0 D0 07              2572 	pop	ar7
   0CA2 D0 06              2573 	pop	ar6
   0CA4 D0 05              2574 	pop	ar5
   0CA6 D0 04              2575 	pop	ar4
   0CA8 D0 03              2576 	pop	ar3
   0CAA D0 02              2577 	pop	ar2
                           2578 ;	led_ctrl.c:808: for ( col = 1; col <= ncols_perpanel[panel]; col++ ) {
   0CAC 0A                 2579 	inc	r2
   0CAD 80 C9              2580 	sjmp	00116$
   0CAF                    2581 00119$:
                           2582 ;	led_ctrl.c:811: led_datarefresh( 0 );
   0CAF 90 00 00           2583 	mov	dptr,#0x0000
   0CB2 C0 03              2584 	push	ar3
   0CB4 C0 04              2585 	push	ar4
   0CB6 C0 05              2586 	push	ar5
   0CB8 C0 06              2587 	push	ar6
   0CBA C0 07              2588 	push	ar7
   0CBC C0 00              2589 	push	ar0
   0CBE 12s00r00           2590 	lcall	_led_datarefresh
                           2591 ;	led_ctrl.c:812: sleep_ms( 100 );            // 250 ms
   0CC1 90 00 64           2592 	mov	dptr,#0x0064
   0CC4 12s00r00           2593 	lcall	_sleep_ms
   0CC7 D0 00              2594 	pop	ar0
   0CC9 D0 07              2595 	pop	ar7
   0CCB D0 06              2596 	pop	ar6
   0CCD D0 05              2597 	pop	ar5
   0CCF D0 04              2598 	pop	ar4
   0CD1 D0 03              2599 	pop	ar3
                           2600 ;	led_ctrl.c:814: for ( col = 1; col <= ncols_perpanel[panel]; col++ ) {
   0CD3 7A 01              2601 	mov	r2,#0x01
   0CD5                    2602 00120$:
   0CD5 8D 82              2603 	mov	dpl,r5
   0CD7 8E 83              2604 	mov	dph,r6
   0CD9 E4                 2605 	clr	a
   0CDA 93                 2606 	movc	a,@a+dptr
   0CDB F9                 2607 	mov	r1,a
   0CDC C3                 2608 	clr	c
   0CDD 9A                 2609 	subb	a,r2
   0CDE 40 2C              2610 	jc	00123$
                           2611 ;	led_ctrl.c:815: led_store_in_panel( 0, panel, row, col );
   0CE0 C2*00              2612 	clr	_led_store_in_panel_PARM_1
   0CE2 85*2F*00           2613 	mov	_led_store_in_panel_PARM_3,_led_selftest_marching_row_row_1_1
   0CE5 8A*00              2614 	mov	_led_store_in_panel_PARM_4,r2
   0CE7 85*2E 82           2615 	mov	dpl,_led_selftest_marching_row_panel_1_1
   0CEA C0 02              2616 	push	ar2
   0CEC C0 03              2617 	push	ar3
   0CEE C0 04              2618 	push	ar4
   0CF0 C0 05              2619 	push	ar5
   0CF2 C0 06              2620 	push	ar6
   0CF4 C0 07              2621 	push	ar7
   0CF6 C0 00              2622 	push	ar0
   0CF8 12s00r00           2623 	lcall	_led_store_in_panel
   0CFB D0 00              2624 	pop	ar0
   0CFD D0 07              2625 	pop	ar7
   0CFF D0 06              2626 	pop	ar6
   0D01 D0 05              2627 	pop	ar5
   0D03 D0 04              2628 	pop	ar4
   0D05 D0 03              2629 	pop	ar3
   0D07 D0 02              2630 	pop	ar2
                           2631 ;	led_ctrl.c:814: for ( col = 1; col <= ncols_perpanel[panel]; col++ ) {
   0D09 0A                 2632 	inc	r2
   0D0A 80 C9              2633 	sjmp	00120$
   0D0C                    2634 00123$:
                           2635 ;	led_ctrl.c:817: led_datarefresh( 0 );
   0D0C 90 00 00           2636 	mov	dptr,#0x0000
   0D0F C0 03              2637 	push	ar3
   0D11 C0 04              2638 	push	ar4
   0D13 C0 05              2639 	push	ar5
   0D15 C0 06              2640 	push	ar6
   0D17 C0 07              2641 	push	ar7
   0D19 C0 00              2642 	push	ar0
   0D1B 12s00r00           2643 	lcall	_led_datarefresh
   0D1E D0 00              2644 	pop	ar0
   0D20 D0 07              2645 	pop	ar7
   0D22 D0 06              2646 	pop	ar6
   0D24 D0 05              2647 	pop	ar5
   0D26 D0 04              2648 	pop	ar4
   0D28 D0 03              2649 	pop	ar3
                           2650 ;	led_ctrl.c:807: for ( row = 1; row <= nrows_perpanel[panel]; row++ ) {
   0D2A 05*2F              2651 	inc	_led_selftest_marching_row_row_1_1
   0D2C 02s0Cr69           2652 	ljmp	00124$
                           2653 ;------------------------------------------------------------
                           2654 ;Allocation info for local variables in function 'led_selftest_marching_col'
                           2655 ;------------------------------------------------------------
                           2656 ;panel                     Allocated with name '_led_selftest_marching_col_panel_1_1'
                           2657 ;row                       Allocated to registers r4 
                           2658 ;col                       Allocated with name '_led_selftest_marching_col_col_1_1'
                           2659 ;------------------------------------------------------------
                           2660 ;	led_ctrl.c:826: void  led_selftest_marching_col( u_int8 panel )
                           2661 ;	-----------------------------------------
                           2662 ;	 function led_selftest_marching_col
                           2663 ;	-----------------------------------------
   0D2F                    2664 _led_selftest_marching_col:
   0D2F 85 82*30           2665 	mov	_led_selftest_marching_col_panel_1_1,dpl
                           2666 ;	led_ctrl.c:830: printf( "selftest 6 - marching column pattern, panel %d\n", panel );
   0D32 AB*30              2667 	mov	r3,_led_selftest_marching_col_panel_1_1
   0D34 7C 00              2668 	mov	r4,#0x00
   0D36 C0 03              2669 	push	ar3
   0D38 C0 04              2670 	push	ar4
   0D3A 74rCB              2671 	mov	a,#__str_23
   0D3C C0 E0              2672 	push	acc
   0D3E 74s03              2673 	mov	a,#(__str_23 >> 8)
   0D40 C0 E0              2674 	push	acc
   0D42 74 80              2675 	mov	a,#0x80
   0D44 C0 E0              2676 	push	acc
   0D46 12s00r00           2677 	lcall	_printf
   0D49 E5 81              2678 	mov	a,sp
   0D4B 24 FB              2679 	add	a,#0xfb
   0D4D F5 81              2680 	mov	sp,a
                           2681 ;	led_ctrl.c:832: if ( panel == 0 ) {
   0D4F E5*30              2682 	mov	a,_led_selftest_marching_col_panel_1_1
   0D51 70 5E              2683 	jnz	00142$
                           2684 ;	led_ctrl.c:833: for ( col = 1; col <= ncols; col++ ) {
   0D53 7B 01              2685 	mov	r3,#0x01
   0D55                    2686 00112$:
   0D55 C3                 2687 	clr	c
   0D56 E5*02              2688 	mov	a,_ncols
   0D58 9B                 2689 	subb	a,r3
   0D59 50 01              2690 	jnc	00150$
   0D5B 22                 2691 	ret
   0D5C                    2692 00150$:
                           2693 ;	led_ctrl.c:834: for ( row = 1; row <= nrows; row++ ) {
   0D5C 7C 01              2694 	mov	r4,#0x01
   0D5E                    2695 00104$:
   0D5E C3                 2696 	clr	c
   0D5F E5*00              2697 	mov	a,_nrows
   0D61 9C                 2698 	subb	a,r4
   0D62 40 14              2699 	jc	00107$
                           2700 ;	led_ctrl.c:835: led_store1( 1, row, col );
   0D64 D2*00              2701 	setb	_led_store1_PARM_1
   0D66 8B*00              2702 	mov	_led_store1_PARM_3,r3
   0D68 8C 82              2703 	mov	dpl,r4
   0D6A C0 03              2704 	push	ar3
   0D6C C0 04              2705 	push	ar4
   0D6E 12s00r00           2706 	lcall	_led_store1
   0D71 D0 04              2707 	pop	ar4
   0D73 D0 03              2708 	pop	ar3
                           2709 ;	led_ctrl.c:834: for ( row = 1; row <= nrows; row++ ) {
   0D75 0C                 2710 	inc	r4
   0D76 80 E6              2711 	sjmp	00104$
   0D78                    2712 00107$:
                           2713 ;	led_ctrl.c:837: led_datarefresh( 0 );
   0D78 90 00 00           2714 	mov	dptr,#0x0000
   0D7B C0 03              2715 	push	ar3
   0D7D 12s00r00           2716 	lcall	_led_datarefresh
                           2717 ;	led_ctrl.c:838: sleep_ms( 100 );            // 250 ms
   0D80 90 00 64           2718 	mov	dptr,#0x0064
   0D83 12s00r00           2719 	lcall	_sleep_ms
   0D86 D0 03              2720 	pop	ar3
                           2721 ;	led_ctrl.c:840: for ( row = 1; row <= nrows; row++ ) {
   0D88 7C 01              2722 	mov	r4,#0x01
   0D8A                    2723 00108$:
   0D8A C3                 2724 	clr	c
   0D8B E5*00              2725 	mov	a,_nrows
   0D8D 9C                 2726 	subb	a,r4
   0D8E 40 14              2727 	jc	00111$
                           2728 ;	led_ctrl.c:841: led_store1( 0, row, col );
   0D90 C2*00              2729 	clr	_led_store1_PARM_1
   0D92 8B*00              2730 	mov	_led_store1_PARM_3,r3
   0D94 8C 82              2731 	mov	dpl,r4
   0D96 C0 03              2732 	push	ar3
   0D98 C0 04              2733 	push	ar4
   0D9A 12s00r00           2734 	lcall	_led_store1
   0D9D D0 04              2735 	pop	ar4
   0D9F D0 03              2736 	pop	ar3
                           2737 ;	led_ctrl.c:840: for ( row = 1; row <= nrows; row++ ) {
   0DA1 0C                 2738 	inc	r4
   0DA2 80 E6              2739 	sjmp	00108$
   0DA4                    2740 00111$:
                           2741 ;	led_ctrl.c:843: led_datarefresh( 0 );
   0DA4 90 00 00           2742 	mov	dptr,#0x0000
   0DA7 C0 03              2743 	push	ar3
   0DA9 12s00r00           2744 	lcall	_led_datarefresh
   0DAC D0 03              2745 	pop	ar3
                           2746 ;	led_ctrl.c:833: for ( col = 1; col <= ncols; col++ ) {
   0DAE 0B                 2747 	inc	r3
                           2748 ;	led_ctrl.c:846: for ( col = 1; col <= ncols_perpanel[panel]; col++ ) {
   0DAF 80 A4              2749 	sjmp	00112$
   0DB1                    2750 00142$:
   0DB1 E5*30              2751 	mov	a,_led_selftest_marching_col_panel_1_1
   0DB3 24r00              2752 	add	a,#_nrows_perpanel
   0DB5 FB                 2753 	mov	r3,a
   0DB6 E4                 2754 	clr	a
   0DB7 34s00              2755 	addc	a,#(_nrows_perpanel >> 8)
   0DB9 FC                 2756 	mov	r4,a
   0DBA 8B 05              2757 	mov	ar5,r3
   0DBC 8C 06              2758 	mov	ar6,r4
   0DBE E5*30              2759 	mov	a,_led_selftest_marching_col_panel_1_1
   0DC0 24r00              2760 	add	a,#_ncols_perpanel
   0DC2 FF                 2761 	mov	r7,a
   0DC3 E4                 2762 	clr	a
   0DC4 34s00              2763 	addc	a,#(_ncols_perpanel >> 8)
   0DC6 F8                 2764 	mov	r0,a
   0DC7 75*31 01           2765 	mov	_led_selftest_marching_col_col_1_1,#0x01
   0DCA                    2766 00124$:
   0DCA 8F 82              2767 	mov	dpl,r7
   0DCC 88 83              2768 	mov	dph,r0
   0DCE E4                 2769 	clr	a
   0DCF 93                 2770 	movc	a,@a+dptr
   0DD0 FA                 2771 	mov	r2,a
   0DD1 C3                 2772 	clr	c
   0DD2 95*31              2773 	subb	a,_led_selftest_marching_col_col_1_1
   0DD4 50 01              2774 	jnc	00153$
   0DD6 22                 2775 	ret
   0DD7                    2776 00153$:
                           2777 ;	led_ctrl.c:847: for ( row = 1; row <= nrows_perpanel[panel]; row++ ) {
   0DD7 7A 01              2778 	mov	r2,#0x01
   0DD9                    2779 00116$:
   0DD9 8B 82              2780 	mov	dpl,r3
   0DDB 8C 83              2781 	mov	dph,r4
   0DDD E4                 2782 	clr	a
   0DDE 93                 2783 	movc	a,@a+dptr
   0DDF F9                 2784 	mov	r1,a
   0DE0 C3                 2785 	clr	c
   0DE1 9A                 2786 	subb	a,r2
   0DE2 40 2C              2787 	jc	00119$
                           2788 ;	led_ctrl.c:848: led_store_in_panel( 1, panel, row, col );
   0DE4 D2*00              2789 	setb	_led_store_in_panel_PARM_1
   0DE6 8A*00              2790 	mov	_led_store_in_panel_PARM_3,r2
   0DE8 85*31*00           2791 	mov	_led_store_in_panel_PARM_4,_led_selftest_marching_col_col_1_1
   0DEB 85*30 82           2792 	mov	dpl,_led_selftest_marching_col_panel_1_1
   0DEE C0 02              2793 	push	ar2
   0DF0 C0 03              2794 	push	ar3
   0DF2 C0 04              2795 	push	ar4
   0DF4 C0 05              2796 	push	ar5
   0DF6 C0 06              2797 	push	ar6
   0DF8 C0 07              2798 	push	ar7
   0DFA C0 00              2799 	push	ar0
   0DFC 12s00r00           2800 	lcall	_led_store_in_panel
   0DFF D0 00              2801 	pop	ar0
   0E01 D0 07              2802 	pop	ar7
   0E03 D0 06              2803 	pop	ar6
   0E05 D0 05              2804 	pop	ar5
   0E07 D0 04              2805 	pop	ar4
   0E09 D0 03              2806 	pop	ar3
   0E0B D0 02              2807 	pop	ar2
                           2808 ;	led_ctrl.c:847: for ( row = 1; row <= nrows_perpanel[panel]; row++ ) {
   0E0D 0A                 2809 	inc	r2
   0E0E 80 C9              2810 	sjmp	00116$
   0E10                    2811 00119$:
                           2812 ;	led_ctrl.c:850: led_datarefresh( 0 );
   0E10 90 00 00           2813 	mov	dptr,#0x0000
   0E13 C0 03              2814 	push	ar3
   0E15 C0 04              2815 	push	ar4
   0E17 C0 05              2816 	push	ar5
   0E19 C0 06              2817 	push	ar6
   0E1B C0 07              2818 	push	ar7
   0E1D C0 00              2819 	push	ar0
   0E1F 12s00r00           2820 	lcall	_led_datarefresh
                           2821 ;	led_ctrl.c:851: sleep_ms( 100 );            // 250 ms
   0E22 90 00 64           2822 	mov	dptr,#0x0064
   0E25 12s00r00           2823 	lcall	_sleep_ms
   0E28 D0 00              2824 	pop	ar0
   0E2A D0 07              2825 	pop	ar7
   0E2C D0 06              2826 	pop	ar6
   0E2E D0 05              2827 	pop	ar5
   0E30 D0 04              2828 	pop	ar4
   0E32 D0 03              2829 	pop	ar3
                           2830 ;	led_ctrl.c:853: for ( row = 1; row <= nrows_perpanel[panel]; row++ ) {
   0E34 7A 01              2831 	mov	r2,#0x01
   0E36                    2832 00120$:
   0E36 8D 82              2833 	mov	dpl,r5
   0E38 8E 83              2834 	mov	dph,r6
   0E3A E4                 2835 	clr	a
   0E3B 93                 2836 	movc	a,@a+dptr
   0E3C F9                 2837 	mov	r1,a
   0E3D C3                 2838 	clr	c
   0E3E 9A                 2839 	subb	a,r2
   0E3F 40 2C              2840 	jc	00123$
                           2841 ;	led_ctrl.c:854: led_store_in_panel( 0, panel, row, col );
   0E41 C2*00              2842 	clr	_led_store_in_panel_PARM_1
   0E43 8A*00              2843 	mov	_led_store_in_panel_PARM_3,r2
   0E45 85*31*00           2844 	mov	_led_store_in_panel_PARM_4,_led_selftest_marching_col_col_1_1
   0E48 85*30 82           2845 	mov	dpl,_led_selftest_marching_col_panel_1_1
   0E4B C0 02              2846 	push	ar2
   0E4D C0 03              2847 	push	ar3
   0E4F C0 04              2848 	push	ar4
   0E51 C0 05              2849 	push	ar5
   0E53 C0 06              2850 	push	ar6
   0E55 C0 07              2851 	push	ar7
   0E57 C0 00              2852 	push	ar0
   0E59 12s00r00           2853 	lcall	_led_store_in_panel
   0E5C D0 00              2854 	pop	ar0
   0E5E D0 07              2855 	pop	ar7
   0E60 D0 06              2856 	pop	ar6
   0E62 D0 05              2857 	pop	ar5
   0E64 D0 04              2858 	pop	ar4
   0E66 D0 03              2859 	pop	ar3
   0E68 D0 02              2860 	pop	ar2
                           2861 ;	led_ctrl.c:853: for ( row = 1; row <= nrows_perpanel[panel]; row++ ) {
   0E6A 0A                 2862 	inc	r2
   0E6B 80 C9              2863 	sjmp	00120$
   0E6D                    2864 00123$:
                           2865 ;	led_ctrl.c:856: led_datarefresh( 0 );
   0E6D 90 00 00           2866 	mov	dptr,#0x0000
   0E70 C0 03              2867 	push	ar3
   0E72 C0 04              2868 	push	ar4
   0E74 C0 05              2869 	push	ar5
   0E76 C0 06              2870 	push	ar6
   0E78 C0 07              2871 	push	ar7
   0E7A C0 00              2872 	push	ar0
   0E7C 12s00r00           2873 	lcall	_led_datarefresh
   0E7F D0 00              2874 	pop	ar0
   0E81 D0 07              2875 	pop	ar7
   0E83 D0 06              2876 	pop	ar6
   0E85 D0 05              2877 	pop	ar5
   0E87 D0 04              2878 	pop	ar4
   0E89 D0 03              2879 	pop	ar3
                           2880 ;	led_ctrl.c:846: for ( col = 1; col <= ncols_perpanel[panel]; col++ ) {
   0E8B 05*31              2881 	inc	_led_selftest_marching_col_col_1_1
   0E8D 02s0DrCA           2882 	ljmp	00124$
                           2883 ;------------------------------------------------------------
                           2884 ;Allocation info for local variables in function 'led_selftest_cylon'
                           2885 ;------------------------------------------------------------
                           2886 ;panel                     Allocated with name '_led_selftest_cylon_panel_1_1'
                           2887 ;row                       Allocated with name '_led_selftest_cylon_row_1_1'
                           2888 ;col                       Allocated with name '_led_selftest_cylon_col_1_1'
                           2889 ;------------------------------------------------------------
                           2890 ;	led_ctrl.c:866: void  led_selftest_cylon( u_int8 panel )
                           2891 ;	-----------------------------------------
                           2892 ;	 function led_selftest_cylon
                           2893 ;	-----------------------------------------
   0E90                    2894 _led_selftest_cylon:
   0E90 85 82*32           2895 	mov	_led_selftest_cylon_panel_1_1,dpl
                           2896 ;	led_ctrl.c:870: printf( "selftest 7 - Cylon pattern, panel %d\n", panel );
   0E93 AB*32              2897 	mov	r3,_led_selftest_cylon_panel_1_1
   0E95 7C 00              2898 	mov	r4,#0x00
   0E97 C0 03              2899 	push	ar3
   0E99 C0 04              2900 	push	ar4
   0E9B 74rFB              2901 	mov	a,#__str_24
   0E9D C0 E0              2902 	push	acc
   0E9F 74s03              2903 	mov	a,#(__str_24 >> 8)
   0EA1 C0 E0              2904 	push	acc
   0EA3 74 80              2905 	mov	a,#0x80
   0EA5 C0 E0              2906 	push	acc
   0EA7 12s00r00           2907 	lcall	_printf
   0EAA E5 81              2908 	mov	a,sp
   0EAC 24 FB              2909 	add	a,#0xfb
   0EAE F5 81              2910 	mov	sp,a
                           2911 ;	led_ctrl.c:895: for ( col = 1; col <= ncols_perpanel[panel]; col++ ) {
   0EB0 E5*32              2912 	mov	a,_led_selftest_cylon_panel_1_1
   0EB2 24r00              2913 	add	a,#_nrows_perpanel
   0EB4 FB                 2914 	mov	r3,a
   0EB5 E4                 2915 	clr	a
   0EB6 34s00              2916 	addc	a,#(_nrows_perpanel >> 8)
   0EB8 FC                 2917 	mov	r4,a
   0EB9 E5*32              2918 	mov	a,_led_selftest_cylon_panel_1_1
   0EBB 24r00              2919 	add	a,#_ncols_perpanel
   0EBD FD                 2920 	mov	r5,a
   0EBE E4                 2921 	clr	a
   0EBF 34s00              2922 	addc	a,#(_ncols_perpanel >> 8)
   0EC1 FE                 2923 	mov	r6,a
   0EC2 75*34 01           2924 	mov	_led_selftest_cylon_col_1_1,#0x01
   0EC5                    2925 00109$:
   0EC5 8D 82              2926 	mov	dpl,r5
   0EC7 8E 83              2927 	mov	dph,r6
   0EC9 E4                 2928 	clr	a
   0ECA 93                 2929 	movc	a,@a+dptr
   0ECB F8                 2930 	mov	r0,a
   0ECC C3                 2931 	clr	c
   0ECD 95*34              2932 	subb	a,_led_selftest_cylon_col_1_1
   0ECF 50 01              2933 	jnc	00122$
   0ED1 22                 2934 	ret
   0ED2                    2935 00122$:
                           2936 ;	led_ctrl.c:896: for ( row = 1; row <= (nrows_perpanel[panel] - 1); row++ ) {
   0ED2 75*33 01           2937 	mov	_led_selftest_cylon_row_1_1,#0x01
   0ED5                    2938 00101$:
   0ED5 C0 05              2939 	push	ar5
   0ED7 C0 06              2940 	push	ar6
   0ED9 8B 82              2941 	mov	dpl,r3
   0EDB 8C 83              2942 	mov	dph,r4
   0EDD E4                 2943 	clr	a
   0EDE 93                 2944 	movc	a,@a+dptr
   0EDF F9                 2945 	mov	r1,a
   0EE0 89 00              2946 	mov	ar0,r1
   0EE2 7A 00              2947 	mov	r2,#0x00
   0EE4 18                 2948 	dec	r0
   0EE5 B8 FF 01           2949 	cjne	r0,#0xff,00123$
   0EE8 1A                 2950 	dec	r2
   0EE9                    2951 00123$:
   0EE9 AF*33              2952 	mov	r7,_led_selftest_cylon_row_1_1
   0EEB 7D 00              2953 	mov	r5,#0x00
   0EED C3                 2954 	clr	c
   0EEE E8                 2955 	mov	a,r0
   0EEF 9F                 2956 	subb	a,r7
   0EF0 EA                 2957 	mov	a,r2
   0EF1 64 80              2958 	xrl	a,#0x80
   0EF3 8D F0              2959 	mov	b,r5
   0EF5 63 F0 80           2960 	xrl	b,#0x80
   0EF8 95 F0              2961 	subb	a,b
   0EFA E4                 2962 	clr	a
   0EFB 33                 2963 	rlc	a
   0EFC D0 06              2964 	pop	ar6
   0EFE D0 05              2965 	pop	ar5
   0F00 60 03              2966 	jz	00124$
   0F02 02s0Fr88           2967 	ljmp	00104$
   0F05                    2968 00124$:
                           2969 ;	led_ctrl.c:897: led_store_in_panel( 1, panel, row, col );
   0F05 D2*00              2970 	setb	_led_store_in_panel_PARM_1
   0F07 85*33*00           2971 	mov	_led_store_in_panel_PARM_3,_led_selftest_cylon_row_1_1
   0F0A 85*34*00           2972 	mov	_led_store_in_panel_PARM_4,_led_selftest_cylon_col_1_1
   0F0D 85*32 82           2973 	mov	dpl,_led_selftest_cylon_panel_1_1
   0F10 C0 03              2974 	push	ar3
   0F12 C0 04              2975 	push	ar4
   0F14 C0 05              2976 	push	ar5
   0F16 C0 06              2977 	push	ar6
   0F18 12s00r00           2978 	lcall	_led_store_in_panel
   0F1B D0 06              2979 	pop	ar6
   0F1D D0 05              2980 	pop	ar5
   0F1F D0 04              2981 	pop	ar4
   0F21 D0 03              2982 	pop	ar3
                           2983 ;	led_ctrl.c:898: led_store_in_panel( 1, panel, row+1, col );
   0F23 E5*33              2984 	mov	a,_led_selftest_cylon_row_1_1
   0F25 04                 2985 	inc	a
   0F26 FA                 2986 	mov	r2,a
   0F27 D2*00              2987 	setb	_led_store_in_panel_PARM_1
   0F29 8A*00              2988 	mov	_led_store_in_panel_PARM_3,r2
   0F2B 85*34*00           2989 	mov	_led_store_in_panel_PARM_4,_led_selftest_cylon_col_1_1
   0F2E 85*32 82           2990 	mov	dpl,_led_selftest_cylon_panel_1_1
   0F31 C0 02              2991 	push	ar2
   0F33 C0 03              2992 	push	ar3
   0F35 C0 04              2993 	push	ar4
   0F37 C0 05              2994 	push	ar5
   0F39 C0 06              2995 	push	ar6
   0F3B 12s00r00           2996 	lcall	_led_store_in_panel
                           2997 ;	led_ctrl.c:899: led_datarefresh( 0 );
   0F3E 90 00 00           2998 	mov	dptr,#0x0000
   0F41 12s00r00           2999 	lcall	_led_datarefresh
                           3000 ;	led_ctrl.c:900: sleep_ms( 50 );            // 50 ms
   0F44 90 00 32           3001 	mov	dptr,#0x0032
   0F47 12s00r00           3002 	lcall	_sleep_ms
                           3003 ;	led_ctrl.c:901: led_store_in_panel( 0, panel, row, col );
   0F4A C2*00              3004 	clr	_led_store_in_panel_PARM_1
   0F4C 85*33*00           3005 	mov	_led_store_in_panel_PARM_3,_led_selftest_cylon_row_1_1
   0F4F 85*34*00           3006 	mov	_led_store_in_panel_PARM_4,_led_selftest_cylon_col_1_1
   0F52 85*32 82           3007 	mov	dpl,_led_selftest_cylon_panel_1_1
   0F55 12s00r00           3008 	lcall	_led_store_in_panel
   0F58 D0 06              3009 	pop	ar6
   0F5A D0 05              3010 	pop	ar5
   0F5C D0 04              3011 	pop	ar4
   0F5E D0 03              3012 	pop	ar3
   0F60 D0 02              3013 	pop	ar2
                           3014 ;	led_ctrl.c:902: led_store_in_panel( 0, panel, row+1, col );
   0F62 C2*00              3015 	clr	_led_store_in_panel_PARM_1
   0F64 8A*00              3016 	mov	_led_store_in_panel_PARM_3,r2
   0F66 85*34*00           3017 	mov	_led_store_in_panel_PARM_4,_led_selftest_cylon_col_1_1
   0F69 85*32 82           3018 	mov	dpl,_led_selftest_cylon_panel_1_1
   0F6C C0 02              3019 	push	ar2
   0F6E C0 03              3020 	push	ar3
   0F70 C0 04              3021 	push	ar4
   0F72 C0 05              3022 	push	ar5
   0F74 C0 06              3023 	push	ar6
   0F76 12s00r00           3024 	lcall	_led_store_in_panel
   0F79 D0 06              3025 	pop	ar6
   0F7B D0 05              3026 	pop	ar5
   0F7D D0 04              3027 	pop	ar4
   0F7F D0 03              3028 	pop	ar3
   0F81 D0 02              3029 	pop	ar2
                           3030 ;	led_ctrl.c:896: for ( row = 1; row <= (nrows_perpanel[panel] - 1); row++ ) {
   0F83 8A*33              3031 	mov	_led_selftest_cylon_row_1_1,r2
   0F85 02s0ErD5           3032 	ljmp	00101$
   0F88                    3033 00104$:
                           3034 ;	led_ctrl.c:904: for ( row = nrows_perpanel[panel]; row > 1; row-- ) {
   0F88 89*33              3035 	mov	_led_selftest_cylon_row_1_1,r1
   0F8A                    3036 00105$:
   0F8A E5*33              3037 	mov	a,_led_selftest_cylon_row_1_1
   0F8C 24 FE              3038 	add	a,#0xff - 0x01
   0F8E 40 03              3039 	jc	00125$
   0F90 02s10r16           3040 	ljmp	00108$
   0F93                    3041 00125$:
                           3042 ;	led_ctrl.c:905: led_store_in_panel( 1, panel, row, col );
   0F93 D2*00              3043 	setb	_led_store_in_panel_PARM_1
   0F95 85*33*00           3044 	mov	_led_store_in_panel_PARM_3,_led_selftest_cylon_row_1_1
   0F98 85*34*00           3045 	mov	_led_store_in_panel_PARM_4,_led_selftest_cylon_col_1_1
   0F9B 85*32 82           3046 	mov	dpl,_led_selftest_cylon_panel_1_1
   0F9E C0 03              3047 	push	ar3
   0FA0 C0 04              3048 	push	ar4
   0FA2 C0 05              3049 	push	ar5
   0FA4 C0 06              3050 	push	ar6
   0FA6 12s00r00           3051 	lcall	_led_store_in_panel
   0FA9 D0 06              3052 	pop	ar6
   0FAB D0 05              3053 	pop	ar5
   0FAD D0 04              3054 	pop	ar4
   0FAF D0 03              3055 	pop	ar3
                           3056 ;	led_ctrl.c:906: led_store_in_panel( 1, panel, row-1, col );
   0FB1 E5*33              3057 	mov	a,_led_selftest_cylon_row_1_1
   0FB3 14                 3058 	dec	a
   0FB4 FA                 3059 	mov	r2,a
   0FB5 D2*00              3060 	setb	_led_store_in_panel_PARM_1
   0FB7 8A*00              3061 	mov	_led_store_in_panel_PARM_3,r2
   0FB9 85*34*00           3062 	mov	_led_store_in_panel_PARM_4,_led_selftest_cylon_col_1_1
   0FBC 85*32 82           3063 	mov	dpl,_led_selftest_cylon_panel_1_1
   0FBF C0 02              3064 	push	ar2
   0FC1 C0 03              3065 	push	ar3
   0FC3 C0 04              3066 	push	ar4
   0FC5 C0 05              3067 	push	ar5
   0FC7 C0 06              3068 	push	ar6
   0FC9 12s00r00           3069 	lcall	_led_store_in_panel
                           3070 ;	led_ctrl.c:907: led_datarefresh( 0 );
   0FCC 90 00 00           3071 	mov	dptr,#0x0000
   0FCF 12s00r00           3072 	lcall	_led_datarefresh
                           3073 ;	led_ctrl.c:908: sleep_ms( 50 );            // 50 ms
   0FD2 90 00 32           3074 	mov	dptr,#0x0032
   0FD5 12s00r00           3075 	lcall	_sleep_ms
                           3076 ;	led_ctrl.c:909: led_store_in_panel( 0, panel, row, col );
   0FD8 C2*00              3077 	clr	_led_store_in_panel_PARM_1
   0FDA 85*33*00           3078 	mov	_led_store_in_panel_PARM_3,_led_selftest_cylon_row_1_1
   0FDD 85*34*00           3079 	mov	_led_store_in_panel_PARM_4,_led_selftest_cylon_col_1_1
   0FE0 85*32 82           3080 	mov	dpl,_led_selftest_cylon_panel_1_1
   0FE3 12s00r00           3081 	lcall	_led_store_in_panel
   0FE6 D0 06              3082 	pop	ar6
   0FE8 D0 05              3083 	pop	ar5
   0FEA D0 04              3084 	pop	ar4
   0FEC D0 03              3085 	pop	ar3
   0FEE D0 02              3086 	pop	ar2
                           3087 ;	led_ctrl.c:910: led_store_in_panel( 0, panel, row-1, col );
   0FF0 C2*00              3088 	clr	_led_store_in_panel_PARM_1
   0FF2 8A*00              3089 	mov	_led_store_in_panel_PARM_3,r2
   0FF4 85*34*00           3090 	mov	_led_store_in_panel_PARM_4,_led_selftest_cylon_col_1_1
   0FF7 85*32 82           3091 	mov	dpl,_led_selftest_cylon_panel_1_1
   0FFA C0 02              3092 	push	ar2
   0FFC C0 03              3093 	push	ar3
   0FFE C0 04              3094 	push	ar4
   1000 C0 05              3095 	push	ar5
   1002 C0 06              3096 	push	ar6
   1004 12s00r00           3097 	lcall	_led_store_in_panel
   1007 D0 06              3098 	pop	ar6
   1009 D0 05              3099 	pop	ar5
   100B D0 04              3100 	pop	ar4
   100D D0 03              3101 	pop	ar3
   100F D0 02              3102 	pop	ar2
                           3103 ;	led_ctrl.c:904: for ( row = nrows_perpanel[panel]; row > 1; row-- ) {
   1011 8A*33              3104 	mov	_led_selftest_cylon_row_1_1,r2
   1013 02s0Fr8A           3105 	ljmp	00105$
   1016                    3106 00108$:
                           3107 ;	led_ctrl.c:912: led_datarefresh( 0 );
   1016 90 00 00           3108 	mov	dptr,#0x0000
   1019 C0 03              3109 	push	ar3
   101B C0 04              3110 	push	ar4
   101D C0 05              3111 	push	ar5
   101F C0 06              3112 	push	ar6
   1021 12s00r00           3113 	lcall	_led_datarefresh
                           3114 ;	led_ctrl.c:913: sleep_ms( 250 );            // 250 ms
   1024 90 00 FA           3115 	mov	dptr,#0x00FA
   1027 12s00r00           3116 	lcall	_sleep_ms
   102A D0 06              3117 	pop	ar6
   102C D0 05              3118 	pop	ar5
   102E D0 04              3119 	pop	ar4
   1030 D0 03              3120 	pop	ar3
                           3121 ;	led_ctrl.c:895: for ( col = 1; col <= ncols_perpanel[panel]; col++ ) {
   1032 05*34              3122 	inc	_led_selftest_cylon_col_1_1
   1034 02s0ErC5           3123 	ljmp	00109$
                           3124 	.area CSEG    (CODE)
                           3125 	.area CONST   (CODE)
   0000                    3126 _version_string:
   0000 4C 45 44 20 43 6F  3127 	.ascii "LED Controller, V0.7, 2008-06-08"
        6E 74 72 6F 6C 6C
        65 72 2C 20 56 30
        2E 37 2C 20 32 30
        30 38 2D 30 36 2D
        30 38
   0020 0A                 3128 	.db 0x0A
   0021 43 6F 70 79 77 72  3129 	.ascii "Copywrite (c) 2008, AMS Con"
        69 74 65 20 28 63
        29 20 32 30 30 38
        2C 20 41 4D 53 20
        43 6F 6E
   003C 73 75 6C 74 69 6E  3130 	.ascii "sulting"
        67
   0043 0A                 3131 	.db 0x0A
   0044 2D 2D 2D 2D 2D 2D  3132 	.ascii "----------"
        2D 2D 2D 2D
   004E 00                 3133 	.db 0x00
   004F                    3134 _help_string:
   004F 52 4F 77 73 20 3C  3135 	.ascii "ROws <n>"
        6E 3E
   0057 0A                 3136 	.db 0x0A
   0058 43 4F 6C 75 6D 6E  3137 	.ascii "COlumns <n>"
        73 20 3C 6E 3E
   0063 0A                 3138 	.db 0x0A
   0064 41 6C 6C 20 20 6F  3139 	.ascii "All  on|off"
        6E 7C 6F 66 66
   006F 0A                 3140 	.db 0x0A
   0070 44 41 74 61 20 3C  3141 	.ascii "DAta <byteoffset> <nbytes> "
        62 79 74 65 6F 66
        66 73 65 74 3E 20
        3C 6E 62 79 74 65
        73 3E 20
   008B 3C 68 65 78 69 66  3142 	.ascii "<hexified data>"
        69 65 64 20 64 61
        74 61 3E
   009A 0A                 3143 	.db 0x0A
   009B 50 49 78 65 6C 20  3144 	.ascii "PIxel 0|1 <row> <col> [<panel>]"
        30 7C 31 20 3C 72
        6F 77 3E 20 3C 63
        6F 6C 3E 20 5B 3C
        70 61 6E 65 6C 3E
        5D
   00BA 0A                 3145 	.db 0x0A
   00BB 54 45 73 74 20 3C  3146 	.ascii "TEst <testnu"
        74 65 73 74 6E 75
   00C7 6D 62 65 72 3E 20  3147 	.ascii "mber> [<panel>]"
        5B 3C 70 61 6E 65
        6C 3E 5D
   00D6 0A                 3148 	.db 0x0A
   00D7 52 45 66 72 65 73  3149 	.ascii "REfresh"
        68
   00DE 00                 3150 	.db 0x00
   00DF                    3151 _test_help_string:
   00DF 54 45 73 74 20 31  3152 	.ascii "TEst 1 [<panel>]     --   4 corners ON"
        20 5B 3C 70 61 6E
        65 6C 3E 5D 20 20
        20 20 20 2D 2D 20
        20 20 34 20 63 6F
        72 6E 65 72 73 20
        4F 4E
   0105 0A                 3153 	.db 0x0A
   0106 54 45 73 74 20 32  3154 	.ascii "TEst 2 [<panel>]     "
        20 5B 3C 70 61 6E
        65 6C 3E 5D 20 20
        20 20 20
   011B 2D 2D 20 20 20 61  3155 	.ascii "--   all pixels ON"
        6C 6C 20 70 69 78
        65 6C 73 20 4F 4E
   012D 0A                 3156 	.db 0x0A
   012E 54 45 73 74 20 33  3157 	.ascii "TEst 3 [<panel>]     --   all pixels OFF"
        20 5B 3C 70 61 6E
        65 6C 3E 5D 20 20
        20 20 20 2D 2D 20
        20 20 61 6C 6C 20
        70 69 78 65 6C 73
        20 4F 46 46
   0156 0A                 3158 	.db 0x0A
   0157 54 45 73 74 20 34  3159 	.ascii "TEst 4 [<panel>] [k] --   all ON / all OFF"
        20 5B 3C 70 61 6E
        65 6C 3E 5D 20 5B
        6B 5D 20 2D 2D 20
        20 20 61 6C 6C 20
        4F 4E 20 2F 20 61
        6C 6C 20 4F 46 46
   0181 0A                 3160 	.db 0x0A
   0182 54 45 73 74 20 35  3161 	.ascii "TEst 5 [<panel>] "
        20 5B 3C 70 61 6E
        65 6C 3E 5D 20
   0193 5B 6B 5D 20 2D 2D  3162 	.ascii "[k] --   marching row pattern"
        20 20 20 6D 61 72
        63 68 69 6E 67 20
        72 6F 77 20 70 61
        74 74 65 72 6E
   01B0 0A                 3163 	.db 0x0A
   01B1 54 45 73 74 20 36  3164 	.ascii "TEst 6 [<panel>] [k] --   marc"
        20 5B 3C 70 61 6E
        65 6C 3E 5D 20 5B
        6B 5D 20 2D 2D 20
        20 20 6D 61 72 63
   01CF 68 69 6E 67 20 63  3165 	.ascii "hing column pattern"
        6F 6C 75 6D 6E 20
        70 61 74 74 65 72
        6E
   01E2 0A                 3166 	.db 0x0A
   01E3 54 45 73 74 20 37  3167 	.ascii "TEst 7 [<panel>] [k] --   Cylon pattern"
        20 5B 3C 70 61 6E
        65 6C 3E 5D 20 5B
        6B 5D 20 2D 2D 20
        20 20 43 79 6C 6F
        6E 20 70 61 74 74
        65 72 6E
   020A 0A                 3168 	.db 0x0A
   020B 54 45 73 74 20 38  3169 	.ascii "TEst 8 [<panel>] [k] --   lots of tests"
        20 5B 3C 70 61 6E
        65 6C 3E 5D 20 5B
        6B 5D 20 2D 2D 20
        20 20 6C 6F 74 73
        20 6F 66 20 74 65
        73 74 73
   0232 00                 3170 	.db 0x00
   0233                    3171 _commands:
   0233 01                 3172 	.db #0x01
   0234 01                 3173 	.db #0x01
   0235r6As02 80           3174 	.byte __str_0,(__str_0 >> 8),#0x80
   0238 02                 3175 	.db #0x02
   0239 01                 3176 	.db #0x01
   023Ar21s04 80           3177 	.byte _str_28,(_str_28 >> 8),#0x80
   023D 03                 3178 	.db #0x03
   023E 03                 3179 	.db #0x03
   023Fr26s04 80           3180 	.byte _str_29,(_str_29 >> 8),#0x80
   0242 04                 3181 	.db #0x04
   0243 03                 3182 	.db #0x03
   0244r2Bs04 80           3183 	.byte _str_30,(_str_30 >> 8),#0x80
   0247 05                 3184 	.db #0x05
   0248 00                 3185 	.db #0x00
   0249r31s04 80           3186 	.byte _str_31,(_str_31 >> 8),#0x80
   024C 06                 3187 	.db #0x06
   024D 00                 3188 	.db #0x00
   024Er36s04 80           3189 	.byte _str_32,(_str_32 >> 8),#0x80
   0251 07                 3190 	.db #0x07
   0252 00                 3191 	.db #0x00
   0253r3Es04 80           3192 	.byte _str_33,(_str_33 >> 8),#0x80
   0256 08                 3193 	.db #0x08
   0257 00                 3194 	.db #0x00
   0258r44s04 80           3195 	.byte _str_34,(_str_34 >> 8),#0x80
   025B 09                 3196 	.db #0x09
   025C 00                 3197 	.db #0x00
   025Dr49s04 80           3198 	.byte _str_35,(_str_35 >> 8),#0x80
   0260 0A                 3199 	.db #0x0A
   0261 00                 3200 	.db #0x00
   0262r4Ds04 80           3201 	.byte _str_36,(_str_36 >> 8),#0x80
   0265 00                 3202 	.db #0x00
   0266 00                 3203 	.db #0x00
   0267 00 00 00           3204 	.byte #0x00,#0x00,#0x00
   026A                    3205 __str_0:
   026A 72 6F 77 73        3206 	.ascii "rows"
   026E 00                 3207 	.db 0x00
   026F                    3208 __str_1:
   026F 63 6F 6C 75 6D 6E  3209 	.ascii "columns"
        73
   0276 00                 3210 	.db 0x00
   0277                    3211 __str_2:
   0277 65 68 3F           3212 	.ascii "eh?"
   027A 00                 3213 	.db 0x00
   027B                    3214 __str_3:
   027B 6D 69 73 73 69 6E  3215 	.ascii "missing arg"
        67 20 61 72 67
   0286 00                 3216 	.db 0x00
   0287                    3217 __str_4:
   0287 25 73 20 6D 75 73  3218 	.ascii "%s must be between %d and %d.  Setting to %d"
        74 20 62 65 20 62
        65 74 77 65 65 6E
        20 25 64 20 61 6E
        64 20 25 64 2E 20
        20 53 65 74 74 69
        6E 67 20 74 6F 20
        25 64
   02B3 0A                 3219 	.db 0x0A
   02B4 00                 3220 	.db 0x00
   02B5                    3221 __str_5:
   02B5 74 72 75 65        3222 	.ascii "true"
   02B9 00                 3223 	.db 0x00
   02BA                    3224 __str_6:
   02BA 6F 6E              3225 	.ascii "on"
   02BC 00                 3226 	.db 0x00
   02BD                    3227 __str_7:
   02BD 66 61 6C 73 65     3228 	.ascii "false"
   02C2 00                 3229 	.db 0x00
   02C3                    3230 __str_8:
   02C3 6F 66 66           3231 	.ascii "off"
   02C6 00                 3232 	.db 0x00
   02C7                    3233 __str_9:
   02C7 45 52 52 20 61 64  3234 	.ascii "ERR addr"
        64 72
   02CF 00                 3235 	.db 0x00
   02D0                    3236 __str_10:
   02D0 45 52 52 20 6C 65  3237 	.ascii "ERR len"
        6E
   02D7 00                 3238 	.db 0x00
   02D8                    3239 __str_11:
   02D8 45 52 52 20 6E 6F  3240 	.ascii "ERR non-hex"
        6E 2D 68 65 78
   02E3 00                 3241 	.db 0x00
   02E4                    3242 __str_12:
   02E4 4F 4B              3243 	.ascii "OK"
   02E6 00                 3244 	.db 0x00
   02E7                    3245 __str_13:
   02E7 44 45 42 55 47 20  3246 	.ascii "DEBUG data nrows %d nrows_div_8 %d ncols %d nled_boards %d"
        64 61 74 61 20 6E
        72 6F 77 73 20 25
        64 20 6E 72 6F 77
        73 5F 64 69 76 5F
        38 20 25 64 20 6E
        63 6F 6C 73 20 25
        64 20 6E 6C 65 64
        5F 62 6F 61 72 64
        73 20 25 64
   0321 0A                 3247 	.db 0x0A
   0322 00                 3248 	.db 0x00
   0323                    3249 __str_14:
   0323 6C 65 64 5F 64 61  3250 	.ascii "led_data:"
        74 61 3A
   032C 00                 3251 	.db 0x00
   032D                    3252 __str_15:
   032D 00                 3253 	.db 0x00
   032E                    3254 __str_16:
   032E 25 30 34 64 3A 20  3255 	.ascii "%04d: "
   0334 00                 3256 	.db 0x00
   0335                    3257 __str_17:
   0335 25 30 32 78 20     3258 	.ascii "%02x "
   033A 00                 3259 	.db 0x00
   033B                    3260 __str_18:
   033B 20 20 25 30 34 64  3261 	.ascii "  %04d: "
        3A 20
   0343 00                 3262 	.db 0x00
   0344                    3263 __str_19:
   0344 0A                 3264 	.db 0x0A
   0345 00                 3265 	.db 0x00
   0346                    3266 __str_20:
   0346 73 65 6C 66 74 65  3267 	.ascii "selftest 1 - corners LEDs on,  panel %d"
        73 74 20 31 20 2D
        20 63 6F 72 6E 65
        72 73 20 4C 45 44
        73 20 6F 6E 2C 20
        20 70 61 6E 65 6C
        20 25 64
   036D 0A                 3268 	.db 0x0A
   036E 00                 3269 	.db 0x00
   036F                    3270 __str_21:
   036F 73 65 6C 66 74 65  3271 	.ascii "selftest 4 - all pixels ON then OFF, panel %d"
        73 74 20 34 20 2D
        20 61 6C 6C 20 70
        69 78 65 6C 73 20
        4F 4E 20 74 68 65
        6E 20 4F 46 46 2C
        20 70 61 6E 65 6C
        20 25 64
   039C 0A                 3272 	.db 0x0A
   039D 00                 3273 	.db 0x00
   039E                    3274 __str_22:
   039E 73 65 6C 66 74 65  3275 	.ascii "selftest 5 - marching row pattern, panel %d"
        73 74 20 35 20 2D
        20 6D 61 72 63 68
        69 6E 67 20 72 6F
        77 20 70 61 74 74
        65 72 6E 2C 20 70
        61 6E 65 6C 20 25
        64
   03C9 0A                 3276 	.db 0x0A
   03CA 00                 3277 	.db 0x00
   03CB                    3278 __str_23:
   03CB 73 65 6C 66 74 65  3279 	.ascii "selftest 6 - marching column pattern, panel %d"
        73 74 20 36 20 2D
        20 6D 61 72 63 68
        69 6E 67 20 63 6F
        6C 75 6D 6E 20 70
        61 74 74 65 72 6E
        2C 20 70 61 6E 65
        6C 20 25 64
   03F9 0A                 3280 	.db 0x0A
   03FA 00                 3281 	.db 0x00
   03FB                    3282 __str_24:
   03FB 73 65 6C 66 74 65  3283 	.ascii "selftest 7 - Cylon pattern, panel %d"
        73 74 20 37 20 2D
        20 43 79 6C 6F 6E
        20 70 61 74 74 65
        72 6E 2C 20 70 61
        6E 65 6C 20 25 64
   041F 0A                 3284 	.db 0x0A
   0420 00                 3285 	.db 0x00
   0421                    3286 _str_28:
   0421 63 6F 6C 73        3287 	.ascii "cols"
   0425 00                 3288 	.db 0x00
   0426                    3289 _str_29:
   0426 64 61 74 61        3290 	.ascii "data"
   042A 00                 3291 	.db 0x00
   042B                    3292 _str_30:
   042B 70 69 78 65 6C     3293 	.ascii "pixel"
   0430 00                 3294 	.db 0x00
   0431                    3295 _str_31:
   0431 74 65 73 74        3296 	.ascii "test"
   0435 00                 3297 	.db 0x00
   0436                    3298 _str_32:
   0436 72 65 66 72 65 73  3299 	.ascii "refresh"
        68
   043D 00                 3300 	.db 0x00
   043E                    3301 _str_33:
   043E 64 65 62 75 67     3302 	.ascii "debug"
   0443 00                 3303 	.db 0x00
   0444                    3304 _str_34:
   0444 68 65 6C 70        3305 	.ascii "help"
   0448 00                 3306 	.db 0x00
   0449                    3307 _str_35:
   0449 6E 6F 70           3308 	.ascii "nop"
   044C 00                 3309 	.db 0x00
   044D                    3310 _str_36:
   044D 61 6C 6C           3311 	.ascii "all"
   0450 00                 3312 	.db 0x00
                           3313 	.area XINIT   (CODE)
                           3314 	.area CABS    (ABS,CODE)
